
multmatrix.elf:     file format elf32-littlenios2
multmatrix.elf
architecture: nios2:r1, flags 0x00000112:
EXEC_P, HAS_SYMS, D_PAGED
start address 0x00040020

Program Header:
    LOAD off    0x00001000 vaddr 0x00040000 paddr 0x00040000 align 2**12
         filesz 0x00000020 memsz 0x00000020 flags r-x
    LOAD off    0x00001020 vaddr 0x00040020 paddr 0x00040020 align 2**12
         filesz 0x00017614 memsz 0x00017614 flags r-x
    LOAD off    0x00018634 vaddr 0x00057634 paddr 0x000580c0 align 2**12
         filesz 0x00000a8c memsz 0x00000a8c flags rw-
    LOAD off    0x00019b4c vaddr 0x00058b4c paddr 0x00058b4c align 2**12
         filesz 0x00000000 memsz 0x00000050 flags rw-

Sections:
Idx Name          Size      VMA       LMA       File off  Algn
  0 .entry        00000020  00040000  00040000  00001000  2**5
                  CONTENTS, ALLOC, LOAD, READONLY, CODE
  1 .exceptions   00000000  00040020  00040020  000190c0  2**0
                  CONTENTS
  2 .text         00016e94  00040020  00040020  00001020  2**2
                  CONTENTS, ALLOC, LOAD, READONLY, CODE
  3 .rodata       00000780  00056eb4  00056eb4  00017eb4  2**2
                  CONTENTS, ALLOC, LOAD, READONLY, DATA
  4 .rwdata       00000a8c  00057634  000580c0  00018634  2**2
                  CONTENTS, ALLOC, LOAD, DATA, SMALL_DATA
  5 .bss          00000050  00058b4c  00058b4c  00019b4c  2**2
                  ALLOC, SMALL_DATA
  6 .IMEM         00000000  00058b9c  00058b9c  000190c0  2**0
                  CONTENTS
  7 .comment      00000023  00000000  00000000  000190c0  2**0
                  CONTENTS, READONLY
  8 .debug_aranges 00001068  00000000  00000000  000190e8  2**3
                  CONTENTS, READONLY, DEBUGGING
  9 .debug_info   0002ed0f  00000000  00000000  0001a150  2**0
                  CONTENTS, READONLY, DEBUGGING
 10 .debug_abbrev 0000afb8  00000000  00000000  00048e5f  2**0
                  CONTENTS, READONLY, DEBUGGING
 11 .debug_line   0000f3e3  00000000  00000000  00053e17  2**0
                  CONTENTS, READONLY, DEBUGGING
 12 .debug_frame  00002428  00000000  00000000  000631fc  2**2
                  CONTENTS, READONLY, DEBUGGING
 13 .debug_str    00003868  00000000  00000000  00065624  2**0
                  CONTENTS, READONLY, DEBUGGING
 14 .debug_loc    00024cbc  00000000  00000000  00068e8c  2**0
                  CONTENTS, READONLY, DEBUGGING
 15 .debug_alt_sim_info 00000060  00000000  00000000  0008db48  2**2
                  CONTENTS, READONLY, DEBUGGING
 16 .debug_ranges 00002028  00000000  00000000  0008dba8  2**3
                  CONTENTS, READONLY, DEBUGGING
 17 .thread_model 00000003  00000000  00000000  00092d0a  2**0
                  CONTENTS, READONLY
 18 .cpu          0000000c  00000000  00000000  00092d0d  2**0
                  CONTENTS, READONLY
 19 .qsys         00000001  00000000  00000000  00092d19  2**0
                  CONTENTS, READONLY
 20 .simulation_enabled 00000001  00000000  00000000  00092d1a  2**0
                  CONTENTS, READONLY
 21 .stderr_dev   00000004  00000000  00000000  00092d1b  2**0
                  CONTENTS, READONLY
 22 .stdin_dev    00000004  00000000  00000000  00092d1f  2**0
                  CONTENTS, READONLY
 23 .stdout_dev   00000004  00000000  00000000  00092d23  2**0
                  CONTENTS, READONLY
 24 .sopc_system_name 00000010  00000000  00000000  00092d27  2**0
                  CONTENTS, READONLY
 25 .quartus_project_dir 00000039  00000000  00000000  00092d37  2**0
                  CONTENTS, READONLY
 26 .jdi          00004d02  00000000  00000000  00092d70  2**0
                  CONTENTS, READONLY
 27 .sopcinfo     0002a042  00000000  00000000  00097a72  2**0
                  CONTENTS, READONLY
SYMBOL TABLE:
00040000 l    d  .entry	00000000 .entry
00040020 l    d  .exceptions	00000000 .exceptions
00040020 l    d  .text	00000000 .text
00056eb4 l    d  .rodata	00000000 .rodata
00057634 l    d  .rwdata	00000000 .rwdata
00058b4c l    d  .bss	00000000 .bss
00058b9c l    d  .IMEM	00000000 .IMEM
00000000 l    d  .comment	00000000 .comment
00000000 l    d  .debug_aranges	00000000 .debug_aranges
00000000 l    d  .debug_info	00000000 .debug_info
00000000 l    d  .debug_abbrev	00000000 .debug_abbrev
00000000 l    d  .debug_line	00000000 .debug_line
00000000 l    d  .debug_frame	00000000 .debug_frame
00000000 l    d  .debug_str	00000000 .debug_str
00000000 l    d  .debug_loc	00000000 .debug_loc
00000000 l    d  .debug_alt_sim_info	00000000 .debug_alt_sim_info
00000000 l    d  .debug_ranges	00000000 .debug_ranges
00000000 l    df *ABS*	00000000 ../multmatrix_bsp//obj/HAL/src/crt0.o
00040068 l       .text	00000000 alt_after_alt_main
00000000 l    df *ABS*	00000000 hello_world.c
00000000 l    df *ABS*	00000000 memcpy.c
00000000 l    df *ABS*	00000000 printf.c
00000000 l    df *ABS*	00000000 putchar.c
00000000 l    df *ABS*	00000000 puts.c
00000000 l    df *ABS*	00000000 scanf.c
00000000 l    df *ABS*	00000000 strlen.c
00000000 l    df *ABS*	00000000 vfprintf.c
00056f56 l     O .rodata	00000010 zeroes.4404
00042cf8 l     F .text	000000bc __sbprintf
00056f66 l     O .rodata	00000010 blanks.4403
00000000 l    df *ABS*	00000000 vfscanf.c
00056f7e l     O .rodata	00000022 basefix.4359
00000000 l    df *ABS*	00000000 wsetup.c
00000000 l    df *ABS*	00000000 ctype_.c
000570a1 l     O .rodata	00000180 _ctype_b
00000000 l    df *ABS*	00000000 dtoa.c
00044794 l     F .text	00000200 quorem
00000000 l    df *ABS*	00000000 fflush.c
00000000 l    df *ABS*	00000000 findfp.c
000462c4 l     F .text	00000008 __fp_unlock
000462d8 l     F .text	0000019c __sinit.part.1
00046474 l     F .text	00000008 __fp_lock
00000000 l    df *ABS*	00000000 fread.c
00000000 l    df *ABS*	00000000 mallocr.c
00000000 l    df *ABS*	00000000 fvwrite.c
00000000 l    df *ABS*	00000000 fwalk.c
00000000 l    df *ABS*	00000000 impure.c
00057634 l     O .rwdata	00000424 impure_data
00000000 l    df *ABS*	00000000 iswspace.c
00000000 l    df *ABS*	00000000 locale.c
00057a78 l     O .rwdata	00000020 lc_ctype_charset
00057a58 l     O .rwdata	00000020 lc_message_charset
00057a98 l     O .rwdata	00000038 lconv
00000000 l    df *ABS*	00000000 makebuf.c
00000000 l    df *ABS*	00000000 mallocr.c
00000000 l    df *ABS*	00000000 mbrtowc.c
00000000 l    df *ABS*	00000000 mbtowc_r.c
00000000 l    df *ABS*	00000000 memchr.c
00000000 l    df *ABS*	00000000 memmove.c
00000000 l    df *ABS*	00000000 memset.c
00000000 l    df *ABS*	00000000 mprec.c
00057244 l     O .rodata	0000000c p05.2768
00000000 l    df *ABS*	00000000 putc.c
00000000 l    df *ABS*	00000000 mallocr.c
00000000 l    df *ABS*	00000000 refill.c
00049a64 l     F .text	0000001c lflush
00000000 l    df *ABS*	00000000 s_fpclassify.c
00000000 l    df *ABS*	00000000 sbrkr.c
00000000 l    df *ABS*	00000000 sccl.c
00000000 l    df *ABS*	00000000 sf_nan.c
00000000 l    df *ABS*	00000000 sprintf.c
00000000 l    df *ABS*	00000000 stdio.c
00000000 l    df *ABS*	00000000 strcmp.c
00000000 l    df *ABS*	00000000 strtod.c
0004a0d0 l     F .text	00000064 sulp
0005738c l     O .rodata	00000014 fpi.2737
000573a0 l     O .rodata	00000028 tinytens
00057378 l     O .rodata	00000014 fpinan.2773
00000000 l    df *ABS*	00000000 strtol.c
00000000 l    df *ABS*	00000000 strtoll_r.c
00000000 l    df *ABS*	00000000 strtoul.c
00000000 l    df *ABS*	00000000 strtoull_r.c
00000000 l    df *ABS*	00000000 vfprintf.c
000573c8 l     O .rodata	00000010 zeroes.4389
000573d8 l     O .rodata	00000010 blanks.4388
00000000 l    df *ABS*	00000000 ungetc.c
00000000 l    df *ABS*	00000000 vfprintf.c
0004e77c l     F .text	000000fc __sprint_r.part.0
000573f8 l     O .rodata	00000010 blanks.4348
000573e8 l     O .rodata	00000010 zeroes.4349
0004fd08 l     F .text	000000bc __sbprintf
00000000 l    df *ABS*	00000000 wbuf.c
00000000 l    df *ABS*	00000000 writer.c
00000000 l    df *ABS*	00000000 closer.c
00000000 l    df *ABS*	00000000 mallocr.c
00000000 l    df *ABS*	00000000 fclose.c
00000000 l    df *ABS*	00000000 fputwc.c
00000000 l    df *ABS*	00000000 fstatr.c
00000000 l    df *ABS*	00000000 gdtoa-gethex.c
000503fc l     F .text	00000100 rshift
00000000 l    df *ABS*	00000000 gdtoa-hexnan.c
00000000 l    df *ABS*	00000000 int_errno.c
00000000 l    df *ABS*	00000000 isattyr.c
00000000 l    df *ABS*	00000000 lseekr.c
00000000 l    df *ABS*	00000000 readr.c
00000000 l    df *ABS*	00000000 strncmp.c
00000000 l    df *ABS*	00000000 vfprintf.c
00057518 l     O .rodata	00000010 blanks.4332
00057508 l     O .rodata	00000010 zeroes.4333
00000000 l    df *ABS*	00000000 wcrtomb.c
00000000 l    df *ABS*	00000000 wctomb_r.c
00000000 l    df *ABS*	00000000 libgcc2.c
00000000 l    df *ABS*	00000000 libgcc2.c
00000000 l    df *ABS*	00000000 libgcc2.c
00000000 l    df *ABS*	00000000 libgcc2.c
00000000 l    df *ABS*	00000000 lib2-divmod.c
00000000 l    df *ABS*	00000000 eqsf2.c
00000000 l    df *ABS*	00000000 gesf2.c
00000000 l    df *ABS*	00000000 lesf2.c
00000000 l    df *ABS*	00000000 adddf3.c
00000000 l    df *ABS*	00000000 divdf3.c
00000000 l    df *ABS*	00000000 eqdf2.c
00000000 l    df *ABS*	00000000 gedf2.c
00000000 l    df *ABS*	00000000 ledf2.c
00000000 l    df *ABS*	00000000 muldf3.c
00000000 l    df *ABS*	00000000 subdf3.c
00000000 l    df *ABS*	00000000 fixdfsi.c
00000000 l    df *ABS*	00000000 floatsidf.c
00000000 l    df *ABS*	00000000 floatunsidf.c
00000000 l    df *ABS*	00000000 truncdfsf2.c
00000000 l    df *ABS*	00000000 libgcc2.c
00000000 l    df *ABS*	00000000 libgcc2.c
00000000 l    df *ABS*	00000000 alt_close.c
00055ea4 l     F .text	0000003c alt_get_errno
00000000 l    df *ABS*	00000000 alt_dev.c
00055fb0 l     F .text	0000002c alt_dev_null_write
00000000 l    df *ABS*	00000000 alt_errno.c
00000000 l    df *ABS*	00000000 alt_fstat.c
00055fdc l     F .text	0000003c alt_get_errno
00000000 l    df *ABS*	00000000 alt_isatty.c
000560c8 l     F .text	0000003c alt_get_errno
00000000 l    df *ABS*	00000000 alt_load.c
000561a8 l     F .text	00000068 alt_load_section
00000000 l    df *ABS*	00000000 alt_lseek.c
00056294 l     F .text	0000003c alt_get_errno
00000000 l    df *ABS*	00000000 alt_main.c
00000000 l    df *ABS*	00000000 alt_malloc_lock.c
00000000 l    df *ABS*	00000000 alt_read.c
0005644c l     F .text	0000003c alt_get_errno
00000000 l    df *ABS*	00000000 alt_release_fd.c
00000000 l    df *ABS*	00000000 alt_sbrk.c
000580bc l     O .rwdata	00000004 heap_end
00000000 l    df *ABS*	00000000 alt_usleep.c
00000000 l    df *ABS*	00000000 alt_write.c
000566c8 l     F .text	0000003c alt_get_errno
00000000 l    df *ABS*	00000000 alt_sys_init.c
00000000 l    df *ABS*	00000000 alt_busy_sleep.c
00000000 l    df *ABS*	00000000 alt_dcache_flush_all.c
00000000 l    df *ABS*	00000000 alt_do_ctors.c
00000000 l    df *ABS*	00000000 alt_do_dtors.c
00000000 l    df *ABS*	00000000 alt_icache_flush_all.c
00000000 l    df *ABS*	00000000 altera_nios2_gen2_irq.c
00000000 l    df *ABS*	00000000 alt_icache_flush.c
00000000 l    df *ABS*	00000000 atexit.c
00000000 l    df *ABS*	00000000 exit.c
00000000 l    df *ABS*	00000000 __atexit.c
00000000 l    df *ABS*	00000000 __call_atexit.c
00000000 l    df *ABS*	00000000 alt_exit.c
000408f4 g     F .text	00000018 putchar
00049220 g     F .text	00000074 _mprec_log10
0004930c g     F .text	0000008c __any_on
00050f88 g     F .text	00000054 _isatty_r
00057250 g     O .rodata	00000028 __mprec_tinytens
000563a4 g     F .text	00000060 alt_main
0004090c g     F .text	000000c0 _puts_r
00050fdc g     F .text	00000060 _lseek_r
000580c0 g       *ABS*	00000000 __flash_rwdata_start
00054828 g     F .text	00000088 .hidden __eqdf2
00058b9c g       *ABS*	00000000 __alt_heap_start
000408b0 g     F .text	0000003c printf
00052578 g     F .text	0000009c _wcrtomb_r
00049f90 g     F .text	0000005c __sseek
00046614 g     F .text	00000010 __sinit
0004fdc4 g     F .text	00000140 __swbuf_r
0004736c g     F .text	0000007c _setlocale_r
0004647c g     F .text	00000068 __sfmoreglue
0004e764 g     F .text	00000018 ungetc
00056428 g     F .text	00000024 __malloc_unlock
0004a134 g     F .text	000015f8 _strtod_r
00048118 g     F .text	0000015c memmove
000465fc g     F .text	00000018 _cleanup
0004839c g     F .text	000000a8 _Balloc
000548b0 g     F .text	000000dc .hidden __gtdf2
00056ae8 g     F .text	00000024 altera_nios2_gen2_irq_init
00040000 g     F .entry	0000001c __reset
00040020 g       *ABS*	00000000 __flash_exceptions_start
000503a0 g     F .text	0000005c _fstat_r
00058b64 g     O .bss	00000004 errno
000445d8 g     F .text	0000001c __svfscanf
00049f0c g     F .text	00000008 __seofread
0005133c g     F .text	0000123c ___svfiprintf_internal_r
00058b6c g     O .bss	00000004 alt_argv
00060080 g       *ABS*	00000000 _gp
00056698 g     F .text	00000030 usleep
00057f00 g     O .rwdata	00000180 alt_fd_list
000408ec g     F .text	00000008 _putchar_r
00040738 g     F .text	00000148 memcpy
00050d2c g     F .text	0000025c __hexnan
000462cc g     F .text	0000000c _cleanup_r
00055b14 g     F .text	000000dc .hidden __floatsidf
0005498c g     F .text	000000f4 .hidden __ltdf2
00056eb4 g       *ABS*	00000000 __DTOR_END__
000409cc g     F .text	00000014 puts
00047ebc g     F .text	000000d8 mbrtowc
00049c54 g     F .text	00000074 __fpclassifyd
000445f4 g     F .text	0000004c _vfscanf_r
0004917c g     F .text	000000a4 __ratio
0004fcec g     F .text	0000001c __vfiprintf_internal
00040880 g     F .text	00000030 _printf_r
000533dc g     F .text	00000064 .hidden __udivsi3
00056104 g     F .text	000000a4 isatty
0004733c g     F .text	00000030 iswspace
000572a0 g     O .rodata	000000c8 __mprec_tens
000473e8 g     F .text	0000000c __locale_charset
000535cc g     F .text	000000c8 .hidden __lesf2
000527c0 g     F .text	00000074 .hidden __fixunsdfsi
00056b0c g     F .text	00000090 alt_icache_flush
00058b60 g     O .bss	00000004 __malloc_top_pad
0004bfe8 g     F .text	0000001c strtoul
00058090 g     O .rwdata	00000004 __mb_cur_max
00047418 g     F .text	0000000c _localeconv_r
0004c004 g     F .text	00000320 _strtoull_r
000487a8 g     F .text	0000003c __i2b
00046cf8 g     F .text	000004bc __sfvwrite_r
00049cc8 g     F .text	00000054 _sbrk_r
0005103c g     F .text	00000060 _read_r
000580b4 g     O .rwdata	00000004 alt_max_fd
00050094 g     F .text	000000f0 _fclose_r
00046294 g     F .text	00000030 fflush
00058b5c g     O .bss	00000004 __malloc_max_sbrked_mem
00053694 g     F .text	000008ac .hidden __adddf3
00053498 g     F .text	00000078 .hidden __nesf2
00048f24 g     F .text	0000010c __b2d
00052dac g     F .text	00000538 .hidden __umoddi3
000562d0 g     F .text	000000d4 lseek
00058088 g     O .rwdata	00000004 _global_impure_ptr
00049500 g     F .text	00000564 _realloc_r
00058b9c g       *ABS*	00000000 __bss_end
00057408 g     O .rodata	00000100 __hexdig
00052834 g     F .text	00000578 .hidden __udivdi3
000502fc g     F .text	00000024 _fputwc_r
00057278 g     O .rodata	00000028 __mprec_bigtens
0004858c g     F .text	00000104 __s2b
00058080 g     O .rwdata	00000004 matrix_ptr
00055bf0 g     F .text	000000a8 .hidden __floatunsidf
00048c64 g     F .text	00000060 __mcmp
00046634 g     F .text	00000018 __fp_lock_all
0004ba7c g     F .text	0000001c strtol
00057ed8 g     O .rwdata	00000028 alt_dev_null
000569ac g     F .text	00000048 alt_dcache_flush_all
00048690 g     F .text	00000068 __hi0bits
00055a94 g     F .text	00000080 .hidden __fixdfsi
0004b72c g     F .text	00000018 strtod
000580c0 g       *ABS*	00000000 __ram_rwdata_end
000580ac g     O .rwdata	00000008 alt_dev_list
00056704 g     F .text	000000f8 write
00049398 g     F .text	000000a0 _putc_r
00053510 g     F .text	000000bc .hidden __gtsf2
00057634 g       *ABS*	00000000 __ram_rodata_end
00056018 g     F .text	000000b0 fstat
0005498c g     F .text	000000f4 .hidden __ledf2
000489dc g     F .text	00000140 __pow5mult
0004e890 g     F .text	0000145c ___vfiprintf_internal_r
00058b54 g     O .bss	00000004 __nlocale_changed
00053440 g     F .text	00000058 .hidden __umodsi3
00040a1c g     F .text	00000030 _scanf_r
00058b9c g       *ABS*	00000000 end
00040290 g     F .text	00000254 multMatrix
00056eb4 g       *ABS*	00000000 __CTOR_LIST__
00072000 g       *ABS*	00000000 __alt_stack_pointer
00055e40 g     F .text	00000064 .hidden __clzsi2
00046624 g     F .text	00000004 __sfp_lock_acquire
00048034 g     F .text	000000e4 memchr
00040ae4 g     F .text	000021f8 ___vfprintf_internal_r
00049df4 g     F .text	00000058 _sprintf_r
000469e8 g     F .text	00000310 _free_r
000473f4 g     F .text	00000010 __locale_mb_cur_max
00056d00 g     F .text	00000180 __call_exitprocs
00058b50 g     O .bss	00000004 __mlocale_changed
00058094 g     O .rwdata	00000004 __malloc_sbrk_base
00040020 g     F .text	0000004c _start
0004ba98 g     F .text	00000304 _strtoll_r
00048b1c g     F .text	00000148 __lshift
00056488 g     F .text	000000fc read
00056834 g     F .text	00000020 alt_sys_init
0005116c g     F .text	000001d0 __ssprint_r
00056be8 g     F .text	00000118 __register_exitproc
0005109c g     F .text	000000d0 strncmp
000487e4 g     F .text	000001f8 __multiply
00057634 g       *ABS*	00000000 __ram_rwdata_start
00056eb4 g       *ABS*	00000000 __ram_rodata_start
00058b74 g     O .bss	00000028 __malloc_current_mallinfo
00053498 g     F .text	00000078 .hidden __eqsf2
00049030 g     F .text	0000014c __d2b
0004bd9c g     F .text	0000024c _strtoul_r
00056854 g     F .text	00000158 alt_busy_sleep
0004ff7c g     F .text	00000054 _close_r
00058b9c g       *ABS*	00000000 __alt_stack_base
00044640 g     F .text	00000154 __swsetup_r
00053f40 g     F .text	000008e8 .hidden __divdf3
000464e4 g     F .text	00000118 __sfp
00049294 g     F .text	00000078 __copybits
00040000 g       *ABS*	00000000 __alt_mem_IMEM
00057ad0 g     O .rwdata	00000408 __malloc_av_
00046630 g     F .text	00000004 __sinit_lock_release
00054a80 g     F .text	00000718 .hidden __muldf3
00049eb8 g     F .text	00000054 __sread
00046890 g     F .text	00000034 fread
00056404 g     F .text	00000024 __malloc_lock
000565e8 g     F .text	000000b0 sbrk
0004c324 g     F .text	000021d8 ___svfprintf_internal_r
00046238 g     F .text	0000005c _fflush_r
0004ffd0 g     F .text	000000c4 _calloc_r
00058b4c g       *ABS*	00000000 __bss_start
00048274 g     F .text	00000128 memset
000404e4 g     F .text	00000254 main
00058b70 g     O .bss	00000004 alt_envp
00058b58 g     O .bss	00000004 __malloc_max_total_mem
0004ff04 g     F .text	00000018 __swbuf
000535cc g     F .text	000000c8 .hidden __ltsf2
00046664 g     F .text	0000022c _fread_r
00049fec g     F .text	00000008 __sclose
00072000 g       *ABS*	00000000 __alt_heap_limit
00050184 g     F .text	00000014 fclose
0004b844 g     F .text	00000238 _strtol_r
00055c98 g     F .text	000001a8 .hidden __truncdfsf2
00044994 g     F .text	00001688 _dtoa_r
00047604 g     F .text	0000080c _malloc_r
000526d4 g     F .text	00000030 __ascii_wctomb
000580b8 g     O .rwdata	00000004 alt_errno
0004e4fc g     F .text	000000d4 __submore
000471b4 g     F .text	000000c4 _fwalk
00047fd8 g     F .text	0000005c _mbtowc_r
00049438 g     F .text	000000c8 putc
000532e4 g     F .text	00000084 .hidden __divsi3
000468c4 g     F .text	00000124 _malloc_trim_r
00056eb4 g       *ABS*	00000000 __CTOR_END__
00049ff4 g     F .text	000000dc strcmp
00056eb4 g       *ABS*	00000000 __flash_rodata_start
00056eb4 g       *ABS*	00000000 __DTOR_LIST__
00054828 g     F .text	00000088 .hidden __nedf2
000567fc g     F .text	00000038 alt_irq_init
00056584 g     F .text	00000064 alt_release_fd
00049e4c g     F .text	0000006c sprintf
00057528 g     O .rodata	00000100 .hidden __clz_tab
00058b4c g     O .bss	00000004 _PathLocale
0004b744 g     F .text	00000100 strtof
00056b9c g     F .text	00000014 atexit
00053510 g     F .text	000000bc .hidden __gesf2
0004ff1c g     F .text	00000060 _write_r
00047424 g     F .text	00000018 setlocale
000409e0 g     F .text	0000003c scanf
00049dec g     F .text	00000008 nanf
0005808c g     O .rwdata	00000004 _impure_ptr
00058b68 g     O .bss	00000004 alt_argc
0004601c g     F .text	0000021c __sflush_r
00047e10 g     F .text	000000ac _mbrtowc_r
00056a54 g     F .text	00000060 _do_dtors
00047410 g     F .text	00000008 __locale_cjk_lang
00049a80 g     F .text	000001d4 __srefill_r
00047f94 g     F .text	00000044 __ascii_mbtowc
00048ec0 g     F .text	00000064 __ulp
0004664c g     F .text	00000018 __fp_unlock_all
000580a4 g     O .rwdata	00000008 alt_fs_list
00040020 g       *ABS*	00000000 __ram_exceptions_start
0004743c g     F .text	0000000c localeconv
000580c0 g       *ABS*	00000000 _edata
00058b9c g       *ABS*	00000000 _end
00050198 g     F .text	00000164 __fputwc
00040020 g       *ABS*	00000000 __ram_exceptions_end
00044570 g     F .text	00000068 vfscanf
00049f14 g     F .text	0000007c __swrite
00058098 g     O .rwdata	00000004 __malloc_trim_threshold
00047404 g     F .text	0000000c __locale_msgcharset
00056bb0 g     F .text	00000038 exit
00047278 g     F .text	000000c4 _fwalk_reent
00048cc4 g     F .text	000001fc __mdiff
00053368 g     F .text	00000074 .hidden __modsi3
00058084 g     O .rwdata	00000004 __ctype_ptr__
00072000 g       *ABS*	00000000 __alt_data_end
00046628 g     F .text	00000004 __sfp_lock_release
00049d1c g     F .text	000000d0 __sccl
00056fa0 g     O .rodata	00000101 _ctype_
0005809c g     O .rwdata	00000004 __mbtowc
0004006c g     F .text	000000d4 inputMatrix
00056e80 g     F .text	00000034 _exit
00052760 g     F .text	00000060 .hidden __muldi3
00047448 g     F .text	000001bc __smakebuf_r
00040a4c g     F .text	00000098 strlen
000548b0 g     F .text	000000dc .hidden __gedf2
0004023c g     F .text	00000054 mergeBits
000504fc g     F .text	00000830 __gethex
00040140 g     F .text	000000fc printMatrix
000580a0 g     O .rwdata	00000004 __wctomb
0004e878 g     F .text	00000018 __sprint_r
00056ab4 g     F .text	00000034 alt_icache_flush_all
00042cdc g     F .text	0000001c __vfprintf_internal
00052704 g     F .text	0000005c _wctomb_r
00055198 g     F .text	000008fc .hidden __subdf3
000486f8 g     F .text	000000b0 __lo0bits
00042db4 g     F .text	000017bc __svfscanf_r
0004e5d0 g     F .text	00000194 _ungetc_r
000569f4 g     F .text	00000060 _do_ctors
00052614 g     F .text	000000c0 wcrtomb
00055ee0 g     F .text	000000d0 close
00056210 g     F .text	00000084 alt_load
00050320 g     F .text	00000080 fputwc
0004662c g     F .text	00000004 __sinit_lock_acquire
0004846c g     F .text	00000120 __multadd
00048444 g     F .text	00000028 _Bfree



Disassembly of section .entry:

00040000 <__reset>:
#if NIOS2_ICACHE_SIZE > 0 && defined(ALT_ALLOW_CODE_AT_RESET) && (!defined(ALT_SIM_OPTIMIZE) || defined(NIOS2_ECC_PRESENT))
    /* Assume the instruction cache size is always a power of two. */
#if NIOS2_ICACHE_SIZE > 0x8000
    movhi r2, %hi(NIOS2_ICACHE_SIZE)
#else
    movui r2, NIOS2_ICACHE_SIZE
   40000:	00840014 	movui	r2,4096
#endif

0:
    initi r2
   40004:	1001483a 	initi	r2
    addi r2, r2, -NIOS2_ICACHE_LINE_SIZE
   40008:	10bff804 	addi	r2,r2,-32
    bgt r2, zero, 0b
   4000c:	00bffd16 	blt	zero,r2,40004 <__alt_data_end+0xfffce004>
 * Jump to the _start entry point in the .text section if reset code
 * is allowed or if optimizing for RTL simulation.
 */
#if defined(ALT_ALLOW_CODE_AT_RESET) || defined(ALT_SIM_OPTIMIZE)
    /* Jump to the _start entry point in the .text section. */
    movhi r1, %hi(_start)
   40010:	00400134 	movhi	at,4
    ori r1, r1, %lo(_start)
   40014:	08400814 	ori	at,at,32
    jmp r1
   40018:	0800683a 	jmp	at
   4001c:	00000000 	call	0 <__alt_mem_IMEM-0x40000>

Disassembly of section .text:

00040020 <_start>:

    /* Assume the data cache size is always a power of two. */
#if NIOS2_DCACHE_SIZE > 0x8000
    movhi r2, %hi(NIOS2_DCACHE_SIZE)
#else
    movui r2, NIOS2_DCACHE_SIZE
   40020:	00820014 	movui	r2,2048
#endif

0:
    initd 0(r2)
   40024:	10000033 	initd	0(r2)
#ifdef NIOS2_ECC_PRESENT
    addi r2, r2, -4
#else
    addi r2, r2, -NIOS2_DCACHE_LINE_SIZE
   40028:	10bff804 	addi	r2,r2,-32
#endif
    bgt r2, zero, 0b
   4002c:	00bffd16 	blt	zero,r2,40024 <__alt_data_end+0xfffce024>

    /*
     * Now that the caches are initialized, set up the stack pointer and global pointer.
     * The values provided by the linker are assumed to be correctly aligned.
     */
    movhi sp, %hi(__alt_stack_pointer)
   40030:	06c001f4 	movhi	sp,7
    ori sp, sp, %lo(__alt_stack_pointer)
   40034:	dec80014 	ori	sp,sp,8192
    movhi gp, %hi(_gp)
   40038:	068001b4 	movhi	gp,6
    ori gp, gp, %lo(_gp)
   4003c:	d6802014 	ori	gp,gp,128
 */
#ifndef ALT_SIM_OPTIMIZE
    /* Log that the BSS is about to be cleared. */
    ALT_LOG_PUTS(alt_log_msg_bss)

    movhi r2, %hi(__bss_start)
   40040:	00800174 	movhi	r2,5
    ori r2, r2, %lo(__bss_start)
   40044:	10a2d314 	ori	r2,r2,35660

    movhi r3, %hi(__bss_end)
   40048:	00c00174 	movhi	r3,5
    ori r3, r3, %lo(__bss_end)
   4004c:	18e2e714 	ori	r3,r3,35740

    beq r2, r3, 1f
   40050:	10c00326 	beq	r2,r3,40060 <_start+0x40>

0:
    stw zero, (r2)
   40054:	10000015 	stw	zero,0(r2)
    addi r2, r2, 4
   40058:	10800104 	addi	r2,r2,4
    bltu r2, r3, 0b
   4005c:	10fffd36 	bltu	r2,r3,40054 <__alt_data_end+0xfffce054>
     * section aren't defined until alt_load() has been called).
     */
    mov   et, zero
#endif

    call alt_load
   40060:	00562100 	call	56210 <alt_load>

    /* Log that alt_main is about to be called. */
    ALT_LOG_PUTS(alt_log_msg_alt_main)

    /* Call the C entry point. It should never return. */
    call alt_main
   40064:	00563a40 	call	563a4 <alt_main>

00040068 <alt_after_alt_main>:

    /* Wait in infinite loop in case alt_main does return. */
alt_after_alt_main:
    br alt_after_alt_main
   40068:	003fff06 	br	40068 <__alt_data_end+0xfffce068>

0004006c <inputMatrix>:
#define matrix_inA *matrix_ptr
#define matrix_inB *(matrix_ptr+1)
#define matrix_out *(matrix_ptr+2)

void inputMatrix(uint8_t** matrix, unsigned rows, unsigned cols)
{
   4006c:	defff804 	addi	sp,sp,-32
   40070:	dfc00715 	stw	ra,28(sp)
   40074:	df000615 	stw	fp,24(sp)
   40078:	df000604 	addi	fp,sp,24
   4007c:	e13ffd15 	stw	r4,-12(fp)
   40080:	e17ffe15 	stw	r5,-8(fp)
   40084:	e1bfff15 	stw	r6,-4(fp)
	unsigned tmp;
	for(int i = 0; i < rows; i++)
   40088:	e03ffa15 	stw	zero,-24(fp)
   4008c:	00002006 	br	40110 <inputMatrix+0xa4>
	{
		for(int j = 0; j < cols; j++)
   40090:	e03ffb15 	stw	zero,-20(fp)
   40094:	00001806 	br	400f8 <inputMatrix+0x8c>
		{
			printf("[%i][%i]: ",i,j);
   40098:	e1bffb17 	ldw	r6,-20(fp)
   4009c:	e17ffa17 	ldw	r5,-24(fp)
   400a0:	01000174 	movhi	r4,5
   400a4:	211bad04 	addi	r4,r4,28340
   400a8:	00408b00 	call	408b0 <printf>
			scanf("%u",&tmp);
   400ac:	e0bffc04 	addi	r2,fp,-16
   400b0:	100b883a 	mov	r5,r2
   400b4:	01000174 	movhi	r4,5
   400b8:	211bb004 	addi	r4,r4,28352
   400bc:	00409e00 	call	409e0 <scanf>
			matrix[i][j] = (uint8_t)tmp;
   400c0:	e0bffa17 	ldw	r2,-24(fp)
   400c4:	1085883a 	add	r2,r2,r2
   400c8:	1085883a 	add	r2,r2,r2
   400cc:	1007883a 	mov	r3,r2
   400d0:	e0bffd17 	ldw	r2,-12(fp)
   400d4:	10c5883a 	add	r2,r2,r3
   400d8:	10c00017 	ldw	r3,0(r2)
   400dc:	e0bffb17 	ldw	r2,-20(fp)
   400e0:	1885883a 	add	r2,r3,r2
   400e4:	e0fffc17 	ldw	r3,-16(fp)
   400e8:	10c00005 	stb	r3,0(r2)
void inputMatrix(uint8_t** matrix, unsigned rows, unsigned cols)
{
	unsigned tmp;
	for(int i = 0; i < rows; i++)
	{
		for(int j = 0; j < cols; j++)
   400ec:	e0bffb17 	ldw	r2,-20(fp)
   400f0:	10800044 	addi	r2,r2,1
   400f4:	e0bffb15 	stw	r2,-20(fp)
   400f8:	e0fffb17 	ldw	r3,-20(fp)
   400fc:	e0bfff17 	ldw	r2,-4(fp)
   40100:	18bfe536 	bltu	r3,r2,40098 <__alt_data_end+0xfffce098>
#define matrix_out *(matrix_ptr+2)

void inputMatrix(uint8_t** matrix, unsigned rows, unsigned cols)
{
	unsigned tmp;
	for(int i = 0; i < rows; i++)
   40104:	e0bffa17 	ldw	r2,-24(fp)
   40108:	10800044 	addi	r2,r2,1
   4010c:	e0bffa15 	stw	r2,-24(fp)
   40110:	e0fffa17 	ldw	r3,-24(fp)
   40114:	e0bffe17 	ldw	r2,-8(fp)
   40118:	18bfdd36 	bltu	r3,r2,40090 <__alt_data_end+0xfffce090>
			printf("[%i][%i]: ",i,j);
			scanf("%u",&tmp);
			matrix[i][j] = (uint8_t)tmp;
		}
	}
	printf("DONE!\n");
   4011c:	01000174 	movhi	r4,5
   40120:	211bb104 	addi	r4,r4,28356
   40124:	00409cc0 	call	409cc <puts>
}
   40128:	0001883a 	nop
   4012c:	e037883a 	mov	sp,fp
   40130:	dfc00117 	ldw	ra,4(sp)
   40134:	df000017 	ldw	fp,0(sp)
   40138:	dec00204 	addi	sp,sp,8
   4013c:	f800283a 	ret

00040140 <printMatrix>:

void printMatrix(unsigned rows, unsigned cols, unsigned matrix[][cols])
{
   40140:	defff704 	addi	sp,sp,-36
   40144:	dfc00815 	stw	ra,32(sp)
   40148:	df000715 	stw	fp,28(sp)
   4014c:	dc000615 	stw	r16,24(sp)
   40150:	df000704 	addi	fp,sp,28
   40154:	e13ffc15 	stw	r4,-16(fp)
   40158:	e17ffd15 	stw	r5,-12(fp)
   4015c:	e1bffe15 	stw	r6,-8(fp)
   40160:	e43ffd17 	ldw	r16,-12(fp)
		}
	}
	printf("DONE!\n");
}

void printMatrix(unsigned rows, unsigned cols, unsigned matrix[][cols])
   40164:	8009883a 	mov	r4,r16
   40168:	213fffc4 	addi	r4,r4,-1
   4016c:	e13ffb15 	stw	r4,-20(fp)
   40170:	800f883a 	mov	r7,r16
   40174:	0011883a 	mov	r8,zero
   40178:	3808d6fa 	srli	r4,r7,27
   4017c:	4006917a 	slli	r3,r8,5
   40180:	20c6b03a 	or	r3,r4,r3
   40184:	3804917a 	slli	r2,r7,5
{
	for (int i = 0; i < rows; ++i)
   40188:	e03ff915 	stw	zero,-28(fp)
   4018c:	00002106 	br	40214 <printMatrix+0xd4>
	{
		for (int j = 0; j < cols; ++j)
   40190:	e03ffa15 	stw	zero,-24(fp)
   40194:	00001706 	br	401f4 <printMatrix+0xb4>
		{
			usleep(1000);
   40198:	0100fa04 	movi	r4,1000
   4019c:	00566980 	call	56698 <usleep>
			printf("[%u][%u]= %u ",i,j,matrix[i][j]);
   401a0:	e0bff917 	ldw	r2,-28(fp)
   401a4:	8085383a 	mul	r2,r16,r2
   401a8:	1085883a 	add	r2,r2,r2
   401ac:	1085883a 	add	r2,r2,r2
   401b0:	1007883a 	mov	r3,r2
   401b4:	e0bffe17 	ldw	r2,-8(fp)
   401b8:	10c7883a 	add	r3,r2,r3
   401bc:	e0bffa17 	ldw	r2,-24(fp)
   401c0:	1085883a 	add	r2,r2,r2
   401c4:	1085883a 	add	r2,r2,r2
   401c8:	1885883a 	add	r2,r3,r2
   401cc:	10800017 	ldw	r2,0(r2)
   401d0:	100f883a 	mov	r7,r2
   401d4:	e1bffa17 	ldw	r6,-24(fp)
   401d8:	e17ff917 	ldw	r5,-28(fp)
   401dc:	01000174 	movhi	r4,5
   401e0:	211bb304 	addi	r4,r4,28364
   401e4:	00408b00 	call	408b0 <printf>

void printMatrix(unsigned rows, unsigned cols, unsigned matrix[][cols])
{
	for (int i = 0; i < rows; ++i)
	{
		for (int j = 0; j < cols; ++j)
   401e8:	e0bffa17 	ldw	r2,-24(fp)
   401ec:	10800044 	addi	r2,r2,1
   401f0:	e0bffa15 	stw	r2,-24(fp)
   401f4:	e0fffa17 	ldw	r3,-24(fp)
   401f8:	e0bffd17 	ldw	r2,-12(fp)
   401fc:	18bfe636 	bltu	r3,r2,40198 <__alt_data_end+0xfffce198>
		{
			usleep(1000);
			printf("[%u][%u]= %u ",i,j,matrix[i][j]);

		}
		printf("\n");
   40200:	01000284 	movi	r4,10
   40204:	00408f40 	call	408f4 <putchar>
	printf("DONE!\n");
}

void printMatrix(unsigned rows, unsigned cols, unsigned matrix[][cols])
{
	for (int i = 0; i < rows; ++i)
   40208:	e0bff917 	ldw	r2,-28(fp)
   4020c:	10800044 	addi	r2,r2,1
   40210:	e0bff915 	stw	r2,-28(fp)
   40214:	e0fff917 	ldw	r3,-28(fp)
   40218:	e0bffc17 	ldw	r2,-16(fp)
   4021c:	18bfdc36 	bltu	r3,r2,40190 <__alt_data_end+0xfffce190>
			printf("[%u][%u]= %u ",i,j,matrix[i][j]);

		}
		printf("\n");
	}
}
   40220:	0001883a 	nop
   40224:	e6ffff04 	addi	sp,fp,-4
   40228:	dfc00217 	ldw	ra,8(sp)
   4022c:	df000117 	ldw	fp,4(sp)
   40230:	dc000017 	ldw	r16,0(sp)
   40234:	dec00304 	addi	sp,sp,12
   40238:	f800283a 	ret

0004023c <mergeBits>:

unsigned mergeBits(unsigned a, unsigned b, unsigned c, unsigned d)
{
   4023c:	defffb04 	addi	sp,sp,-20
   40240:	df000415 	stw	fp,16(sp)
   40244:	df000404 	addi	fp,sp,16
   40248:	e13ffc15 	stw	r4,-16(fp)
   4024c:	e17ffd15 	stw	r5,-12(fp)
   40250:	e1bffe15 	stw	r6,-8(fp)
   40254:	e1ffff15 	stw	r7,-4(fp)
	return (a<<8*3 | b<<8*2 | c<<8 | d);
   40258:	e0bffc17 	ldw	r2,-16(fp)
   4025c:	1006963a 	slli	r3,r2,24
   40260:	e0bffd17 	ldw	r2,-12(fp)
   40264:	1004943a 	slli	r2,r2,16
   40268:	1886b03a 	or	r3,r3,r2
   4026c:	e0bffe17 	ldw	r2,-8(fp)
   40270:	1004923a 	slli	r2,r2,8
   40274:	1886b03a 	or	r3,r3,r2
   40278:	e0bfff17 	ldw	r2,-4(fp)
   4027c:	1884b03a 	or	r2,r3,r2
}
   40280:	e037883a 	mov	sp,fp
   40284:	df000017 	ldw	fp,0(sp)
   40288:	dec00104 	addi	sp,sp,4
   4028c:	f800283a 	ret

00040290 <multMatrix>:

void multMatrix(unsigned rows, unsigned cols, uint8_t matrixA[][cols], uint8_t matrixB[][cols], unsigned matrixRe[][cols])
{
   40290:	deffef04 	addi	sp,sp,-68
   40294:	dfc01015 	stw	ra,64(sp)
   40298:	df000f15 	stw	fp,60(sp)
   4029c:	dc800e15 	stw	r18,56(sp)
   402a0:	dc400d15 	stw	r17,52(sp)
   402a4:	dc000c15 	stw	r16,48(sp)
   402a8:	df000f04 	addi	fp,sp,60
   402ac:	e13ff915 	stw	r4,-28(fp)
   402b0:	e17ffa15 	stw	r5,-24(fp)
   402b4:	e1bffb15 	stw	r6,-20(fp)
   402b8:	e1fffc15 	stw	r7,-16(fp)
unsigned mergeBits(unsigned a, unsigned b, unsigned c, unsigned d)
{
	return (a<<8*3 | b<<8*2 | c<<8 | d);
}

void multMatrix(unsigned rows, unsigned cols, uint8_t matrixA[][cols], uint8_t matrixB[][cols], unsigned matrixRe[][cols])
   402bc:	e4bffa17 	ldw	r18,-24(fp)
   402c0:	9009883a 	mov	r4,r18
   402c4:	213fffc4 	addi	r4,r4,-1
   402c8:	e13ff315 	stw	r4,-52(fp)
   402cc:	9021883a 	mov	r16,r18
   402d0:	0023883a 	mov	r17,zero
   402d4:	8008d77a 	srli	r4,r16,29
   402d8:	881690fa 	slli	r11,r17,3
   402dc:	22d6b03a 	or	r11,r4,r11
   402e0:	801490fa 	slli	r10,r16,3
	unsigned tmp1,tmp2,tmp3;
	for (int i = 0; i < rows; ++i) {
		for (int j = 0; j < cols; ++j) {
			tmp1 = mergeBits(matrixA[i][0],matrixA[i][1],matrixA[i][2],matrixA[i][3]);
			matrix_inA = tmp1;
			tmp2 = mergeBits(matrixB[0][j],matrixB[1][j],matrixB[2][j],matrixB[3][j]);
   402e4:	e43ffa17 	ldw	r16,-24(fp)
unsigned mergeBits(unsigned a, unsigned b, unsigned c, unsigned d)
{
	return (a<<8*3 | b<<8*2 | c<<8 | d);
}

void multMatrix(unsigned rows, unsigned cols, uint8_t matrixA[][cols], uint8_t matrixB[][cols], unsigned matrixRe[][cols])
   402e8:	8009883a 	mov	r4,r16
   402ec:	213fffc4 	addi	r4,r4,-1
   402f0:	e13ff415 	stw	r4,-48(fp)
   402f4:	801d883a 	mov	r14,r16
   402f8:	001f883a 	mov	r15,zero
   402fc:	7008d77a 	srli	r4,r14,29
   40300:	781290fa 	slli	r9,r15,3
   40304:	2252b03a 	or	r9,r4,r9
   40308:	701090fa 	slli	r8,r14,3
{
   4030c:	e47ffa17 	ldw	r17,-24(fp)
unsigned mergeBits(unsigned a, unsigned b, unsigned c, unsigned d)
{
	return (a<<8*3 | b<<8*2 | c<<8 | d);
}

void multMatrix(unsigned rows, unsigned cols, uint8_t matrixA[][cols], uint8_t matrixB[][cols], unsigned matrixRe[][cols])
   40310:	8809883a 	mov	r4,r17
   40314:	213fffc4 	addi	r4,r4,-1
   40318:	e13ff515 	stw	r4,-44(fp)
   4031c:	8819883a 	mov	r12,r17
   40320:	001b883a 	mov	r13,zero
   40324:	6008d6fa 	srli	r4,r12,27
   40328:	6806917a 	slli	r3,r13,5
   4032c:	20c6b03a 	or	r3,r4,r3
   40330:	6004917a 	slli	r2,r12,5
{
	unsigned tmp1,tmp2,tmp3;
	for (int i = 0; i < rows; ++i) {
   40334:	e03ff115 	stw	zero,-60(fp)
   40338:	00005e06 	br	404b4 <multMatrix+0x224>
		for (int j = 0; j < cols; ++j) {
   4033c:	e03ff215 	stw	zero,-56(fp)
   40340:	00005606 	br	4049c <multMatrix+0x20c>
			tmp1 = mergeBits(matrixA[i][0],matrixA[i][1],matrixA[i][2],matrixA[i][3]);
   40344:	e0bff117 	ldw	r2,-60(fp)
   40348:	9085383a 	mul	r2,r18,r2
   4034c:	e0fffb17 	ldw	r3,-20(fp)
   40350:	1885883a 	add	r2,r3,r2
   40354:	10800003 	ldbu	r2,0(r2)
   40358:	11003fcc 	andi	r4,r2,255
   4035c:	e0bff117 	ldw	r2,-60(fp)
   40360:	9085383a 	mul	r2,r18,r2
   40364:	e0fffb17 	ldw	r3,-20(fp)
   40368:	1885883a 	add	r2,r3,r2
   4036c:	10800043 	ldbu	r2,1(r2)
   40370:	11403fcc 	andi	r5,r2,255
   40374:	e0bff117 	ldw	r2,-60(fp)
   40378:	9085383a 	mul	r2,r18,r2
   4037c:	e0fffb17 	ldw	r3,-20(fp)
   40380:	1885883a 	add	r2,r3,r2
   40384:	10800083 	ldbu	r2,2(r2)
   40388:	11803fcc 	andi	r6,r2,255
   4038c:	e0bff117 	ldw	r2,-60(fp)
   40390:	9085383a 	mul	r2,r18,r2
   40394:	e0fffb17 	ldw	r3,-20(fp)
   40398:	1885883a 	add	r2,r3,r2
   4039c:	108000c3 	ldbu	r2,3(r2)
   403a0:	10803fcc 	andi	r2,r2,255
   403a4:	100f883a 	mov	r7,r2
   403a8:	004023c0 	call	4023c <mergeBits>
   403ac:	e0bff615 	stw	r2,-40(fp)
			matrix_inA = tmp1;
   403b0:	d0a00017 	ldw	r2,-32768(gp)
   403b4:	e0fff617 	ldw	r3,-40(fp)
   403b8:	10c00015 	stw	r3,0(r2)
			tmp2 = mergeBits(matrixB[0][j],matrixB[1][j],matrixB[2][j],matrixB[3][j]);
   403bc:	e0fffc17 	ldw	r3,-16(fp)
   403c0:	e0bff217 	ldw	r2,-56(fp)
   403c4:	1885883a 	add	r2,r3,r2
   403c8:	10800003 	ldbu	r2,0(r2)
   403cc:	11003fcc 	andi	r4,r2,255
   403d0:	e0bffc17 	ldw	r2,-16(fp)
   403d4:	1407883a 	add	r3,r2,r16
   403d8:	e0bff217 	ldw	r2,-56(fp)
   403dc:	1885883a 	add	r2,r3,r2
   403e0:	10800003 	ldbu	r2,0(r2)
   403e4:	11403fcc 	andi	r5,r2,255
   403e8:	8405883a 	add	r2,r16,r16
   403ec:	1007883a 	mov	r3,r2
   403f0:	e0bffc17 	ldw	r2,-16(fp)
   403f4:	10c7883a 	add	r3,r2,r3
   403f8:	e0bff217 	ldw	r2,-56(fp)
   403fc:	1885883a 	add	r2,r3,r2
   40400:	10800003 	ldbu	r2,0(r2)
   40404:	11803fcc 	andi	r6,r2,255
   40408:	8005883a 	mov	r2,r16
   4040c:	1085883a 	add	r2,r2,r2
   40410:	1405883a 	add	r2,r2,r16
   40414:	e0fffc17 	ldw	r3,-16(fp)
   40418:	1887883a 	add	r3,r3,r2
   4041c:	e0bff217 	ldw	r2,-56(fp)
   40420:	1885883a 	add	r2,r3,r2
   40424:	10800003 	ldbu	r2,0(r2)
   40428:	10803fcc 	andi	r2,r2,255
   4042c:	100f883a 	mov	r7,r2
   40430:	004023c0 	call	4023c <mergeBits>
   40434:	e0bff715 	stw	r2,-36(fp)
			matrix_inB = tmp2;
   40438:	d0a00017 	ldw	r2,-32768(gp)
   4043c:	10800104 	addi	r2,r2,4
   40440:	e0fff717 	ldw	r3,-36(fp)
   40444:	10c00015 	stw	r3,0(r2)
			tmp3 = matrix_out;
   40448:	d0a00017 	ldw	r2,-32768(gp)
   4044c:	10800217 	ldw	r2,8(r2)
   40450:	e0bff815 	stw	r2,-32(fp)
			matrixRe[i][j] = tmp3;
   40454:	e0bff117 	ldw	r2,-60(fp)
   40458:	8885383a 	mul	r2,r17,r2
   4045c:	1085883a 	add	r2,r2,r2
   40460:	1085883a 	add	r2,r2,r2
   40464:	1007883a 	mov	r3,r2
   40468:	e0800217 	ldw	r2,8(fp)
   4046c:	10c7883a 	add	r3,r2,r3
   40470:	e0bff217 	ldw	r2,-56(fp)
   40474:	1085883a 	add	r2,r2,r2
   40478:	1085883a 	add	r2,r2,r2
   4047c:	1885883a 	add	r2,r3,r2
   40480:	e0fff817 	ldw	r3,-32(fp)
   40484:	10c00015 	stw	r3,0(r2)
			usleep(10000);
   40488:	0109c404 	movi	r4,10000
   4048c:	00566980 	call	56698 <usleep>

void multMatrix(unsigned rows, unsigned cols, uint8_t matrixA[][cols], uint8_t matrixB[][cols], unsigned matrixRe[][cols])
{
	unsigned tmp1,tmp2,tmp3;
	for (int i = 0; i < rows; ++i) {
		for (int j = 0; j < cols; ++j) {
   40490:	e0bff217 	ldw	r2,-56(fp)
   40494:	10800044 	addi	r2,r2,1
   40498:	e0bff215 	stw	r2,-56(fp)
   4049c:	e0fff217 	ldw	r3,-56(fp)
   404a0:	e0bffa17 	ldw	r2,-24(fp)
   404a4:	18bfa736 	bltu	r3,r2,40344 <__alt_data_end+0xfffce344>
}

void multMatrix(unsigned rows, unsigned cols, uint8_t matrixA[][cols], uint8_t matrixB[][cols], unsigned matrixRe[][cols])
{
	unsigned tmp1,tmp2,tmp3;
	for (int i = 0; i < rows; ++i) {
   404a8:	e0bff117 	ldw	r2,-60(fp)
   404ac:	10800044 	addi	r2,r2,1
   404b0:	e0bff115 	stw	r2,-60(fp)
   404b4:	e0fff117 	ldw	r3,-60(fp)
   404b8:	e0bff917 	ldw	r2,-28(fp)
   404bc:	18bf9f36 	bltu	r3,r2,4033c <__alt_data_end+0xfffce33c>
			tmp3 = matrix_out;
			matrixRe[i][j] = tmp3;
			usleep(10000);
		}
	}
}
   404c0:	0001883a 	nop
   404c4:	e6fffd04 	addi	sp,fp,-12
   404c8:	dfc00417 	ldw	ra,16(sp)
   404cc:	df000317 	ldw	fp,12(sp)
   404d0:	dc800217 	ldw	r18,8(sp)
   404d4:	dc400117 	ldw	r17,4(sp)
   404d8:	dc000017 	ldw	r16,0(sp)
   404dc:	dec00504 	addi	sp,sp,20
   404e0:	f800283a 	ret

000404e4 <main>:

int main()
{
   404e4:	deffe104 	addi	sp,sp,-124
   404e8:	dfc01e15 	stw	ra,120(sp)
   404ec:	df001d15 	stw	fp,116(sp)
   404f0:	df001d04 	addi	fp,sp,116
	printf("Hello from Nios II!\n");
   404f4:	01000174 	movhi	r4,5
   404f8:	211bb704 	addi	r4,r4,28380
   404fc:	00409cc0 	call	409cc <puts>
	uint8_t matrixA[4][4] =
   40500:	00800174 	movhi	r2,5
   40504:	109bbf44 	addi	r2,r2,28413
   40508:	e0ffe804 	addi	r3,fp,-96
   4050c:	1009883a 	mov	r4,r2
   40510:	00800404 	movi	r2,16
   40514:	100d883a 	mov	r6,r2
   40518:	200b883a 	mov	r5,r4
   4051c:	1809883a 	mov	r4,r3
   40520:	00407380 	call	40738 <memcpy>
			{{4,4,4,4},
			{4,4,4,4},
			{4,4,4,4},
			{4,4,4,4}},
			matrixB[4][4] =
   40524:	00800174 	movhi	r2,5
   40528:	109bbf44 	addi	r2,r2,28413
   4052c:	e0ffec04 	addi	r3,fp,-80
   40530:	1009883a 	mov	r4,r2
   40534:	00800404 	movi	r2,16
   40538:	100d883a 	mov	r6,r2
   4053c:	200b883a 	mov	r5,r4
   40540:	1809883a 	mov	r4,r3
   40544:	00407380 	call	40738 <memcpy>
			{4,4,4,4},
			{4,4,4,4},
			{4,4,4,4}};
	unsigned C[4][4];
	unsigned tmp1,tmp2,tmp3,tmp4;
	for(int i=0;i<4;i++)
   40548:	e03fe315 	stw	zero,-116(fp)
   4054c:	00007106 	br	40714 <main+0x230>
	{
		for(int j=0;j<4;j++)
   40550:	e03fe415 	stw	zero,-112(fp)
   40554:	00006706 	br	406f4 <main+0x210>
		{
			tmp1 = mergeBits(0,0,0,0);
   40558:	000f883a 	mov	r7,zero
   4055c:	000d883a 	mov	r6,zero
   40560:	000b883a 	mov	r5,zero
   40564:	0009883a 	mov	r4,zero
   40568:	004023c0 	call	4023c <mergeBits>
   4056c:	e0bfe515 	stw	r2,-108(fp)
			matrix_inA = tmp1;
   40570:	d0a00017 	ldw	r2,-32768(gp)
   40574:	e0ffe517 	ldw	r3,-108(fp)
   40578:	10c00015 	stw	r3,0(r2)
			tmp2 = mergeBits(0,0,0,0);
   4057c:	000f883a 	mov	r7,zero
   40580:	000d883a 	mov	r6,zero
   40584:	000b883a 	mov	r5,zero
   40588:	0009883a 	mov	r4,zero
   4058c:	004023c0 	call	4023c <mergeBits>
   40590:	e0bfe615 	stw	r2,-104(fp)
			tmp3 = matrix_out;
   40594:	d0a00017 	ldw	r2,-32768(gp)
   40598:	10800217 	ldw	r2,8(r2)
   4059c:	e0bfe715 	stw	r2,-100(fp)
			tmp1 = mergeBits(matrixA[i][0], matrixA[i][1], matrixA[i][2], matrixA[i][3]);
   405a0:	e0bfe317 	ldw	r2,-116(fp)
   405a4:	1085883a 	add	r2,r2,r2
   405a8:	1085883a 	add	r2,r2,r2
   405ac:	e0ffe304 	addi	r3,fp,-116
   405b0:	1885883a 	add	r2,r3,r2
   405b4:	10800504 	addi	r2,r2,20
   405b8:	10800003 	ldbu	r2,0(r2)
   405bc:	10c03fcc 	andi	r3,r2,255
   405c0:	e0bfe317 	ldw	r2,-116(fp)
   405c4:	1085883a 	add	r2,r2,r2
   405c8:	1085883a 	add	r2,r2,r2
   405cc:	e13fe304 	addi	r4,fp,-116
   405d0:	2085883a 	add	r2,r4,r2
   405d4:	10800544 	addi	r2,r2,21
   405d8:	10800003 	ldbu	r2,0(r2)
   405dc:	11003fcc 	andi	r4,r2,255
   405e0:	e0bfe317 	ldw	r2,-116(fp)
   405e4:	1085883a 	add	r2,r2,r2
   405e8:	1085883a 	add	r2,r2,r2
   405ec:	e17fe304 	addi	r5,fp,-116
   405f0:	2885883a 	add	r2,r5,r2
   405f4:	10800584 	addi	r2,r2,22
   405f8:	10800003 	ldbu	r2,0(r2)
   405fc:	11403fcc 	andi	r5,r2,255
   40600:	e0bfe317 	ldw	r2,-116(fp)
   40604:	1085883a 	add	r2,r2,r2
   40608:	1085883a 	add	r2,r2,r2
   4060c:	e1bfe304 	addi	r6,fp,-116
   40610:	3085883a 	add	r2,r6,r2
   40614:	108005c4 	addi	r2,r2,23
   40618:	10800003 	ldbu	r2,0(r2)
   4061c:	10803fcc 	andi	r2,r2,255
   40620:	100f883a 	mov	r7,r2
   40624:	280d883a 	mov	r6,r5
   40628:	200b883a 	mov	r5,r4
   4062c:	1809883a 	mov	r4,r3
   40630:	004023c0 	call	4023c <mergeBits>
   40634:	e0bfe515 	stw	r2,-108(fp)
			matrix_inA = tmp1;
   40638:	d0a00017 	ldw	r2,-32768(gp)
   4063c:	e0ffe517 	ldw	r3,-108(fp)
   40640:	10c00015 	stw	r3,0(r2)
			tmp2 = mergeBits(matrixB[0][j], matrixB[1][j], matrixB[2][j], matrixB[3][j]);
   40644:	e0ffec04 	addi	r3,fp,-80
   40648:	e0bfe417 	ldw	r2,-112(fp)
   4064c:	1885883a 	add	r2,r3,r2
   40650:	10800003 	ldbu	r2,0(r2)
   40654:	11003fcc 	andi	r4,r2,255
   40658:	e0ffed04 	addi	r3,fp,-76
   4065c:	e0bfe417 	ldw	r2,-112(fp)
   40660:	1885883a 	add	r2,r3,r2
   40664:	10800003 	ldbu	r2,0(r2)
   40668:	11403fcc 	andi	r5,r2,255
   4066c:	e0ffee04 	addi	r3,fp,-72
   40670:	e0bfe417 	ldw	r2,-112(fp)
   40674:	1885883a 	add	r2,r3,r2
   40678:	10800003 	ldbu	r2,0(r2)
   4067c:	11803fcc 	andi	r6,r2,255
   40680:	e0ffef04 	addi	r3,fp,-68
   40684:	e0bfe417 	ldw	r2,-112(fp)
   40688:	1885883a 	add	r2,r3,r2
   4068c:	10800003 	ldbu	r2,0(r2)
   40690:	10803fcc 	andi	r2,r2,255
   40694:	100f883a 	mov	r7,r2
   40698:	004023c0 	call	4023c <mergeBits>
   4069c:	e0bfe615 	stw	r2,-104(fp)
			matrix_inB = tmp2;
   406a0:	d0a00017 	ldw	r2,-32768(gp)
   406a4:	10800104 	addi	r2,r2,4
   406a8:	e0ffe617 	ldw	r3,-104(fp)
   406ac:	10c00015 	stw	r3,0(r2)
			tmp3 = matrix_out;
   406b0:	d0a00017 	ldw	r2,-32768(gp)
   406b4:	10800217 	ldw	r2,8(r2)
   406b8:	e0bfe715 	stw	r2,-100(fp)
			usleep(100);
   406bc:	01001904 	movi	r4,100
   406c0:	00566980 	call	56698 <usleep>
			tmp3 = matrix_out;
   406c4:	d0a00017 	ldw	r2,-32768(gp)
   406c8:	10800217 	ldw	r2,8(r2)
   406cc:	e0bfe715 	stw	r2,-100(fp)
			printf("[%i][%i]=%u\t",i,j, tmp3);
   406d0:	e1ffe717 	ldw	r7,-100(fp)
   406d4:	e1bfe417 	ldw	r6,-112(fp)
   406d8:	e17fe317 	ldw	r5,-116(fp)
   406dc:	01000174 	movhi	r4,5
   406e0:	211bbc04 	addi	r4,r4,28400
   406e4:	00408b00 	call	408b0 <printf>
			{4,4,4,4}};
	unsigned C[4][4];
	unsigned tmp1,tmp2,tmp3,tmp4;
	for(int i=0;i<4;i++)
	{
		for(int j=0;j<4;j++)
   406e8:	e0bfe417 	ldw	r2,-112(fp)
   406ec:	10800044 	addi	r2,r2,1
   406f0:	e0bfe415 	stw	r2,-112(fp)
   406f4:	e0bfe417 	ldw	r2,-112(fp)
   406f8:	10800110 	cmplti	r2,r2,4
   406fc:	103f961e 	bne	r2,zero,40558 <__alt_data_end+0xfffce558>
			tmp3 = matrix_out;
			usleep(100);
			tmp3 = matrix_out;
			printf("[%i][%i]=%u\t",i,j, tmp3);
		}
		printf("\n");
   40700:	01000284 	movi	r4,10
   40704:	00408f40 	call	408f4 <putchar>
			{4,4,4,4},
			{4,4,4,4},
			{4,4,4,4}};
	unsigned C[4][4];
	unsigned tmp1,tmp2,tmp3,tmp4;
	for(int i=0;i<4;i++)
   40708:	e0bfe317 	ldw	r2,-116(fp)
   4070c:	10800044 	addi	r2,r2,1
   40710:	e0bfe315 	stw	r2,-116(fp)
   40714:	e0bfe317 	ldw	r2,-116(fp)
   40718:	10800110 	cmplti	r2,r2,4
   4071c:	103f8c1e 	bne	r2,zero,40550 <__alt_data_end+0xfffce550>
			tmp3 = matrix_out;
			printf("[%i][%i]=%u\t",i,j, tmp3);
		}
		printf("\n");
	}
	return 0;
   40720:	0005883a 	mov	r2,zero
}
   40724:	e037883a 	mov	sp,fp
   40728:	dfc00117 	ldw	ra,4(sp)
   4072c:	df000017 	ldw	fp,0(sp)
   40730:	dec00204 	addi	sp,sp,8
   40734:	f800283a 	ret

00040738 <memcpy>:
   40738:	defffd04 	addi	sp,sp,-12
   4073c:	dfc00215 	stw	ra,8(sp)
   40740:	dc400115 	stw	r17,4(sp)
   40744:	dc000015 	stw	r16,0(sp)
   40748:	00c003c4 	movi	r3,15
   4074c:	2005883a 	mov	r2,r4
   40750:	1980452e 	bgeu	r3,r6,40868 <memcpy+0x130>
   40754:	2906b03a 	or	r3,r5,r4
   40758:	18c000cc 	andi	r3,r3,3
   4075c:	1800441e 	bne	r3,zero,40870 <memcpy+0x138>
   40760:	347ffc04 	addi	r17,r6,-16
   40764:	8822d13a 	srli	r17,r17,4
   40768:	28c00104 	addi	r3,r5,4
   4076c:	23400104 	addi	r13,r4,4
   40770:	8820913a 	slli	r16,r17,4
   40774:	2b000204 	addi	r12,r5,8
   40778:	22c00204 	addi	r11,r4,8
   4077c:	84000504 	addi	r16,r16,20
   40780:	2a800304 	addi	r10,r5,12
   40784:	22400304 	addi	r9,r4,12
   40788:	2c21883a 	add	r16,r5,r16
   4078c:	2811883a 	mov	r8,r5
   40790:	200f883a 	mov	r7,r4
   40794:	41000017 	ldw	r4,0(r8)
   40798:	1fc00017 	ldw	ra,0(r3)
   4079c:	63c00017 	ldw	r15,0(r12)
   407a0:	39000015 	stw	r4,0(r7)
   407a4:	53800017 	ldw	r14,0(r10)
   407a8:	6fc00015 	stw	ra,0(r13)
   407ac:	5bc00015 	stw	r15,0(r11)
   407b0:	4b800015 	stw	r14,0(r9)
   407b4:	18c00404 	addi	r3,r3,16
   407b8:	39c00404 	addi	r7,r7,16
   407bc:	42000404 	addi	r8,r8,16
   407c0:	6b400404 	addi	r13,r13,16
   407c4:	63000404 	addi	r12,r12,16
   407c8:	5ac00404 	addi	r11,r11,16
   407cc:	52800404 	addi	r10,r10,16
   407d0:	4a400404 	addi	r9,r9,16
   407d4:	1c3fef1e 	bne	r3,r16,40794 <__alt_data_end+0xfffce794>
   407d8:	89c00044 	addi	r7,r17,1
   407dc:	380e913a 	slli	r7,r7,4
   407e0:	310003cc 	andi	r4,r6,15
   407e4:	02c000c4 	movi	r11,3
   407e8:	11c7883a 	add	r3,r2,r7
   407ec:	29cb883a 	add	r5,r5,r7
   407f0:	5900212e 	bgeu	r11,r4,40878 <memcpy+0x140>
   407f4:	1813883a 	mov	r9,r3
   407f8:	2811883a 	mov	r8,r5
   407fc:	200f883a 	mov	r7,r4
   40800:	42800017 	ldw	r10,0(r8)
   40804:	4a400104 	addi	r9,r9,4
   40808:	39ffff04 	addi	r7,r7,-4
   4080c:	4abfff15 	stw	r10,-4(r9)
   40810:	42000104 	addi	r8,r8,4
   40814:	59fffa36 	bltu	r11,r7,40800 <__alt_data_end+0xfffce800>
   40818:	213fff04 	addi	r4,r4,-4
   4081c:	2008d0ba 	srli	r4,r4,2
   40820:	318000cc 	andi	r6,r6,3
   40824:	21000044 	addi	r4,r4,1
   40828:	2109883a 	add	r4,r4,r4
   4082c:	2109883a 	add	r4,r4,r4
   40830:	1907883a 	add	r3,r3,r4
   40834:	290b883a 	add	r5,r5,r4
   40838:	30000626 	beq	r6,zero,40854 <memcpy+0x11c>
   4083c:	198d883a 	add	r6,r3,r6
   40840:	29c00003 	ldbu	r7,0(r5)
   40844:	18c00044 	addi	r3,r3,1
   40848:	29400044 	addi	r5,r5,1
   4084c:	19ffffc5 	stb	r7,-1(r3)
   40850:	19bffb1e 	bne	r3,r6,40840 <__alt_data_end+0xfffce840>
   40854:	dfc00217 	ldw	ra,8(sp)
   40858:	dc400117 	ldw	r17,4(sp)
   4085c:	dc000017 	ldw	r16,0(sp)
   40860:	dec00304 	addi	sp,sp,12
   40864:	f800283a 	ret
   40868:	2007883a 	mov	r3,r4
   4086c:	003ff206 	br	40838 <__alt_data_end+0xfffce838>
   40870:	2007883a 	mov	r3,r4
   40874:	003ff106 	br	4083c <__alt_data_end+0xfffce83c>
   40878:	200d883a 	mov	r6,r4
   4087c:	003fee06 	br	40838 <__alt_data_end+0xfffce838>

00040880 <_printf_r>:
   40880:	defffd04 	addi	sp,sp,-12
   40884:	2805883a 	mov	r2,r5
   40888:	dfc00015 	stw	ra,0(sp)
   4088c:	d9800115 	stw	r6,4(sp)
   40890:	d9c00215 	stw	r7,8(sp)
   40894:	21400217 	ldw	r5,8(r4)
   40898:	d9c00104 	addi	r7,sp,4
   4089c:	100d883a 	mov	r6,r2
   408a0:	0040ae40 	call	40ae4 <___vfprintf_internal_r>
   408a4:	dfc00017 	ldw	ra,0(sp)
   408a8:	dec00304 	addi	sp,sp,12
   408ac:	f800283a 	ret

000408b0 <printf>:
   408b0:	defffc04 	addi	sp,sp,-16
   408b4:	dfc00015 	stw	ra,0(sp)
   408b8:	d9400115 	stw	r5,4(sp)
   408bc:	d9800215 	stw	r6,8(sp)
   408c0:	d9c00315 	stw	r7,12(sp)
   408c4:	008001b4 	movhi	r2,6
   408c8:	10a02304 	addi	r2,r2,-32628
   408cc:	10800017 	ldw	r2,0(r2)
   408d0:	200b883a 	mov	r5,r4
   408d4:	d9800104 	addi	r6,sp,4
   408d8:	11000217 	ldw	r4,8(r2)
   408dc:	0042cdc0 	call	42cdc <__vfprintf_internal>
   408e0:	dfc00017 	ldw	ra,0(sp)
   408e4:	dec00404 	addi	sp,sp,16
   408e8:	f800283a 	ret

000408ec <_putchar_r>:
   408ec:	21800217 	ldw	r6,8(r4)
   408f0:	00493981 	jmpi	49398 <_putc_r>

000408f4 <putchar>:
   408f4:	008001b4 	movhi	r2,6
   408f8:	10a02304 	addi	r2,r2,-32628
   408fc:	200b883a 	mov	r5,r4
   40900:	11000017 	ldw	r4,0(r2)
   40904:	21800217 	ldw	r6,8(r4)
   40908:	00493981 	jmpi	49398 <_putc_r>

0004090c <_puts_r>:
   4090c:	defff604 	addi	sp,sp,-40
   40910:	dc000715 	stw	r16,28(sp)
   40914:	2021883a 	mov	r16,r4
   40918:	2809883a 	mov	r4,r5
   4091c:	dc400815 	stw	r17,32(sp)
   40920:	dfc00915 	stw	ra,36(sp)
   40924:	2823883a 	mov	r17,r5
   40928:	0040a4c0 	call	40a4c <strlen>
   4092c:	10c00044 	addi	r3,r2,1
   40930:	d8800115 	stw	r2,4(sp)
   40934:	00800174 	movhi	r2,5
   40938:	109bc404 	addi	r2,r2,28432
   4093c:	d8800215 	stw	r2,8(sp)
   40940:	00800044 	movi	r2,1
   40944:	d8800315 	stw	r2,12(sp)
   40948:	00800084 	movi	r2,2
   4094c:	dc400015 	stw	r17,0(sp)
   40950:	d8c00615 	stw	r3,24(sp)
   40954:	dec00415 	stw	sp,16(sp)
   40958:	d8800515 	stw	r2,20(sp)
   4095c:	80000226 	beq	r16,zero,40968 <_puts_r+0x5c>
   40960:	80800e17 	ldw	r2,56(r16)
   40964:	10001426 	beq	r2,zero,409b8 <_puts_r+0xac>
   40968:	81400217 	ldw	r5,8(r16)
   4096c:	2880030b 	ldhu	r2,12(r5)
   40970:	10c8000c 	andi	r3,r2,8192
   40974:	1800061e 	bne	r3,zero,40990 <_puts_r+0x84>
   40978:	29001917 	ldw	r4,100(r5)
   4097c:	00f7ffc4 	movi	r3,-8193
   40980:	10880014 	ori	r2,r2,8192
   40984:	20c6703a 	and	r3,r4,r3
   40988:	2880030d 	sth	r2,12(r5)
   4098c:	28c01915 	stw	r3,100(r5)
   40990:	d9800404 	addi	r6,sp,16
   40994:	8009883a 	mov	r4,r16
   40998:	0046cf80 	call	46cf8 <__sfvwrite_r>
   4099c:	1000091e 	bne	r2,zero,409c4 <_puts_r+0xb8>
   409a0:	00800284 	movi	r2,10
   409a4:	dfc00917 	ldw	ra,36(sp)
   409a8:	dc400817 	ldw	r17,32(sp)
   409ac:	dc000717 	ldw	r16,28(sp)
   409b0:	dec00a04 	addi	sp,sp,40
   409b4:	f800283a 	ret
   409b8:	8009883a 	mov	r4,r16
   409bc:	00466140 	call	46614 <__sinit>
   409c0:	003fe906 	br	40968 <__alt_data_end+0xfffce968>
   409c4:	00bfffc4 	movi	r2,-1
   409c8:	003ff606 	br	409a4 <__alt_data_end+0xfffce9a4>

000409cc <puts>:
   409cc:	008001b4 	movhi	r2,6
   409d0:	10a02304 	addi	r2,r2,-32628
   409d4:	200b883a 	mov	r5,r4
   409d8:	11000017 	ldw	r4,0(r2)
   409dc:	004090c1 	jmpi	4090c <_puts_r>

000409e0 <scanf>:
   409e0:	defffc04 	addi	sp,sp,-16
   409e4:	dfc00015 	stw	ra,0(sp)
   409e8:	d9400115 	stw	r5,4(sp)
   409ec:	d9800215 	stw	r6,8(sp)
   409f0:	d9c00315 	stw	r7,12(sp)
   409f4:	008001b4 	movhi	r2,6
   409f8:	10a02304 	addi	r2,r2,-32628
   409fc:	200d883a 	mov	r6,r4
   40a00:	11000017 	ldw	r4,0(r2)
   40a04:	d9c00104 	addi	r7,sp,4
   40a08:	21400117 	ldw	r5,4(r4)
   40a0c:	00445f40 	call	445f4 <_vfscanf_r>
   40a10:	dfc00017 	ldw	ra,0(sp)
   40a14:	dec00404 	addi	sp,sp,16
   40a18:	f800283a 	ret

00040a1c <_scanf_r>:
   40a1c:	defffd04 	addi	sp,sp,-12
   40a20:	2805883a 	mov	r2,r5
   40a24:	dfc00015 	stw	ra,0(sp)
   40a28:	d9800115 	stw	r6,4(sp)
   40a2c:	d9c00215 	stw	r7,8(sp)
   40a30:	21400117 	ldw	r5,4(r4)
   40a34:	d9c00104 	addi	r7,sp,4
   40a38:	100d883a 	mov	r6,r2
   40a3c:	00445f40 	call	445f4 <_vfscanf_r>
   40a40:	dfc00017 	ldw	ra,0(sp)
   40a44:	dec00304 	addi	sp,sp,12
   40a48:	f800283a 	ret

00040a4c <strlen>:
   40a4c:	208000cc 	andi	r2,r4,3
   40a50:	10002026 	beq	r2,zero,40ad4 <strlen+0x88>
   40a54:	20800007 	ldb	r2,0(r4)
   40a58:	10002026 	beq	r2,zero,40adc <strlen+0x90>
   40a5c:	2005883a 	mov	r2,r4
   40a60:	00000206 	br	40a6c <strlen+0x20>
   40a64:	10c00007 	ldb	r3,0(r2)
   40a68:	18001826 	beq	r3,zero,40acc <strlen+0x80>
   40a6c:	10800044 	addi	r2,r2,1
   40a70:	10c000cc 	andi	r3,r2,3
   40a74:	183ffb1e 	bne	r3,zero,40a64 <__alt_data_end+0xfffcea64>
   40a78:	10c00017 	ldw	r3,0(r2)
   40a7c:	01ffbff4 	movhi	r7,65279
   40a80:	39ffbfc4 	addi	r7,r7,-257
   40a84:	00ca303a 	nor	r5,zero,r3
   40a88:	01a02074 	movhi	r6,32897
   40a8c:	19c7883a 	add	r3,r3,r7
   40a90:	31a02004 	addi	r6,r6,-32640
   40a94:	1946703a 	and	r3,r3,r5
   40a98:	1986703a 	and	r3,r3,r6
   40a9c:	1800091e 	bne	r3,zero,40ac4 <strlen+0x78>
   40aa0:	10800104 	addi	r2,r2,4
   40aa4:	10c00017 	ldw	r3,0(r2)
   40aa8:	19cb883a 	add	r5,r3,r7
   40aac:	00c6303a 	nor	r3,zero,r3
   40ab0:	28c6703a 	and	r3,r5,r3
   40ab4:	1986703a 	and	r3,r3,r6
   40ab8:	183ff926 	beq	r3,zero,40aa0 <__alt_data_end+0xfffceaa0>
   40abc:	00000106 	br	40ac4 <strlen+0x78>
   40ac0:	10800044 	addi	r2,r2,1
   40ac4:	10c00007 	ldb	r3,0(r2)
   40ac8:	183ffd1e 	bne	r3,zero,40ac0 <__alt_data_end+0xfffceac0>
   40acc:	1105c83a 	sub	r2,r2,r4
   40ad0:	f800283a 	ret
   40ad4:	2005883a 	mov	r2,r4
   40ad8:	003fe706 	br	40a78 <__alt_data_end+0xfffcea78>
   40adc:	0005883a 	mov	r2,zero
   40ae0:	f800283a 	ret

00040ae4 <___vfprintf_internal_r>:
   40ae4:	deffb804 	addi	sp,sp,-288
   40ae8:	dfc04715 	stw	ra,284(sp)
   40aec:	ddc04515 	stw	r23,276(sp)
   40af0:	dd404315 	stw	r21,268(sp)
   40af4:	d9002c15 	stw	r4,176(sp)
   40af8:	282f883a 	mov	r23,r5
   40afc:	302b883a 	mov	r21,r6
   40b00:	d9c02d15 	stw	r7,180(sp)
   40b04:	df004615 	stw	fp,280(sp)
   40b08:	dd804415 	stw	r22,272(sp)
   40b0c:	dd004215 	stw	r20,264(sp)
   40b10:	dcc04115 	stw	r19,260(sp)
   40b14:	dc804015 	stw	r18,256(sp)
   40b18:	dc403f15 	stw	r17,252(sp)
   40b1c:	dc003e15 	stw	r16,248(sp)
   40b20:	00474180 	call	47418 <_localeconv_r>
   40b24:	10800017 	ldw	r2,0(r2)
   40b28:	1009883a 	mov	r4,r2
   40b2c:	d8803415 	stw	r2,208(sp)
   40b30:	0040a4c0 	call	40a4c <strlen>
   40b34:	d8803715 	stw	r2,220(sp)
   40b38:	d8802c17 	ldw	r2,176(sp)
   40b3c:	10000226 	beq	r2,zero,40b48 <___vfprintf_internal_r+0x64>
   40b40:	10800e17 	ldw	r2,56(r2)
   40b44:	1000f926 	beq	r2,zero,40f2c <___vfprintf_internal_r+0x448>
   40b48:	b880030b 	ldhu	r2,12(r23)
   40b4c:	10c8000c 	andi	r3,r2,8192
   40b50:	1800061e 	bne	r3,zero,40b6c <___vfprintf_internal_r+0x88>
   40b54:	b9001917 	ldw	r4,100(r23)
   40b58:	00f7ffc4 	movi	r3,-8193
   40b5c:	10880014 	ori	r2,r2,8192
   40b60:	20c6703a 	and	r3,r4,r3
   40b64:	b880030d 	sth	r2,12(r23)
   40b68:	b8c01915 	stw	r3,100(r23)
   40b6c:	10c0020c 	andi	r3,r2,8
   40b70:	1800c126 	beq	r3,zero,40e78 <___vfprintf_internal_r+0x394>
   40b74:	b8c00417 	ldw	r3,16(r23)
   40b78:	1800bf26 	beq	r3,zero,40e78 <___vfprintf_internal_r+0x394>
   40b7c:	1080068c 	andi	r2,r2,26
   40b80:	00c00284 	movi	r3,10
   40b84:	10c0c426 	beq	r2,r3,40e98 <___vfprintf_internal_r+0x3b4>
   40b88:	d8c00404 	addi	r3,sp,16
   40b8c:	05000174 	movhi	r20,5
   40b90:	d9001e04 	addi	r4,sp,120
   40b94:	a51bd584 	addi	r20,r20,28502
   40b98:	d8c01e15 	stw	r3,120(sp)
   40b9c:	d8002015 	stw	zero,128(sp)
   40ba0:	d8001f15 	stw	zero,124(sp)
   40ba4:	d8003315 	stw	zero,204(sp)
   40ba8:	d8003615 	stw	zero,216(sp)
   40bac:	d8003815 	stw	zero,224(sp)
   40bb0:	1811883a 	mov	r8,r3
   40bb4:	d8003915 	stw	zero,228(sp)
   40bb8:	d8003a15 	stw	zero,232(sp)
   40bbc:	d8002f15 	stw	zero,188(sp)
   40bc0:	d9002815 	stw	r4,160(sp)
   40bc4:	a8800007 	ldb	r2,0(r21)
   40bc8:	10027b26 	beq	r2,zero,415b8 <___vfprintf_internal_r+0xad4>
   40bcc:	00c00944 	movi	r3,37
   40bd0:	a821883a 	mov	r16,r21
   40bd4:	10c0021e 	bne	r2,r3,40be0 <___vfprintf_internal_r+0xfc>
   40bd8:	00001406 	br	40c2c <___vfprintf_internal_r+0x148>
   40bdc:	10c00326 	beq	r2,r3,40bec <___vfprintf_internal_r+0x108>
   40be0:	84000044 	addi	r16,r16,1
   40be4:	80800007 	ldb	r2,0(r16)
   40be8:	103ffc1e 	bne	r2,zero,40bdc <__alt_data_end+0xfffcebdc>
   40bec:	8563c83a 	sub	r17,r16,r21
   40bf0:	88000e26 	beq	r17,zero,40c2c <___vfprintf_internal_r+0x148>
   40bf4:	d8c02017 	ldw	r3,128(sp)
   40bf8:	d8801f17 	ldw	r2,124(sp)
   40bfc:	45400015 	stw	r21,0(r8)
   40c00:	1c47883a 	add	r3,r3,r17
   40c04:	10800044 	addi	r2,r2,1
   40c08:	d8c02015 	stw	r3,128(sp)
   40c0c:	44400115 	stw	r17,4(r8)
   40c10:	d8801f15 	stw	r2,124(sp)
   40c14:	00c001c4 	movi	r3,7
   40c18:	1880a716 	blt	r3,r2,40eb8 <___vfprintf_internal_r+0x3d4>
   40c1c:	42000204 	addi	r8,r8,8
   40c20:	d9402f17 	ldw	r5,188(sp)
   40c24:	2c4b883a 	add	r5,r5,r17
   40c28:	d9402f15 	stw	r5,188(sp)
   40c2c:	80800007 	ldb	r2,0(r16)
   40c30:	1000a826 	beq	r2,zero,40ed4 <___vfprintf_internal_r+0x3f0>
   40c34:	84400047 	ldb	r17,1(r16)
   40c38:	00bfffc4 	movi	r2,-1
   40c3c:	85400044 	addi	r21,r16,1
   40c40:	d8002785 	stb	zero,158(sp)
   40c44:	0007883a 	mov	r3,zero
   40c48:	000f883a 	mov	r7,zero
   40c4c:	d8802915 	stw	r2,164(sp)
   40c50:	d8003115 	stw	zero,196(sp)
   40c54:	0025883a 	mov	r18,zero
   40c58:	01401604 	movi	r5,88
   40c5c:	01800244 	movi	r6,9
   40c60:	02800a84 	movi	r10,42
   40c64:	02401b04 	movi	r9,108
   40c68:	ad400044 	addi	r21,r21,1
   40c6c:	88bff804 	addi	r2,r17,-32
   40c70:	28830436 	bltu	r5,r2,41884 <___vfprintf_internal_r+0xda0>
   40c74:	100490ba 	slli	r2,r2,2
   40c78:	01000134 	movhi	r4,4
   40c7c:	21032304 	addi	r4,r4,3212
   40c80:	1105883a 	add	r2,r2,r4
   40c84:	10800017 	ldw	r2,0(r2)
   40c88:	1000683a 	jmp	r2
   40c8c:	000417a4 	muli	zero,zero,4190
   40c90:	00041884 	movi	zero,4194
   40c94:	00041884 	movi	zero,4194
   40c98:	000417c4 	movi	zero,4191
   40c9c:	00041884 	movi	zero,4194
   40ca0:	00041884 	movi	zero,4194
   40ca4:	00041884 	movi	zero,4194
   40ca8:	00041884 	movi	zero,4194
   40cac:	00041884 	movi	zero,4194
   40cb0:	00041884 	movi	zero,4194
   40cb4:	00040f38 	rdprs	zero,zero,4156
   40cb8:	000416e0 	cmpeqi	zero,zero,4187
   40cbc:	00041884 	movi	zero,4194
   40cc0:	00040e00 	call	40e0 <__alt_mem_IMEM-0x3bf20>
   40cc4:	00040f60 	cmpeqi	zero,zero,4157
   40cc8:	00041884 	movi	zero,4194
   40ccc:	00040fa0 	cmpeqi	zero,zero,4158
   40cd0:	00040fac 	andhi	zero,zero,4158
   40cd4:	00040fac 	andhi	zero,zero,4158
   40cd8:	00040fac 	andhi	zero,zero,4158
   40cdc:	00040fac 	andhi	zero,zero,4158
   40ce0:	00040fac 	andhi	zero,zero,4158
   40ce4:	00040fac 	andhi	zero,zero,4158
   40ce8:	00040fac 	andhi	zero,zero,4158
   40cec:	00040fac 	andhi	zero,zero,4158
   40cf0:	00040fac 	andhi	zero,zero,4158
   40cf4:	00041884 	movi	zero,4194
   40cf8:	00041884 	movi	zero,4194
   40cfc:	00041884 	movi	zero,4194
   40d00:	00041884 	movi	zero,4194
   40d04:	00041884 	movi	zero,4194
   40d08:	00041884 	movi	zero,4194
   40d0c:	00041884 	movi	zero,4194
   40d10:	00041884 	movi	zero,4194
   40d14:	00041884 	movi	zero,4194
   40d18:	00041884 	movi	zero,4194
   40d1c:	00040fe0 	cmpeqi	zero,zero,4159
   40d20:	0004109c 	xori	zero,zero,4162
   40d24:	00041884 	movi	zero,4194
   40d28:	0004109c 	xori	zero,zero,4162
   40d2c:	00041884 	movi	zero,4194
   40d30:	00041884 	movi	zero,4194
   40d34:	00041884 	movi	zero,4194
   40d38:	00041884 	movi	zero,4194
   40d3c:	0004113c 	xorhi	zero,zero,4164
   40d40:	00041884 	movi	zero,4194
   40d44:	00041884 	movi	zero,4194
   40d48:	00041148 	cmpgei	zero,zero,4165
   40d4c:	00041884 	movi	zero,4194
   40d50:	00041884 	movi	zero,4194
   40d54:	00041884 	movi	zero,4194
   40d58:	00041884 	movi	zero,4194
   40d5c:	00041884 	movi	zero,4194
   40d60:	000415c0 	call	415c <__alt_mem_IMEM-0x3bea4>
   40d64:	00041884 	movi	zero,4194
   40d68:	00041884 	movi	zero,4194
   40d6c:	00041620 	cmpeqi	zero,zero,4184
   40d70:	00041884 	movi	zero,4194
   40d74:	00041884 	movi	zero,4194
   40d78:	00041884 	movi	zero,4194
   40d7c:	00041884 	movi	zero,4194
   40d80:	00041884 	movi	zero,4194
   40d84:	00041884 	movi	zero,4194
   40d88:	00041884 	movi	zero,4194
   40d8c:	00041884 	movi	zero,4194
   40d90:	00041884 	movi	zero,4194
   40d94:	00041884 	movi	zero,4194
   40d98:	00041830 	cmpltui	zero,zero,4192
   40d9c:	000417d0 	cmplti	zero,zero,4191
   40da0:	0004109c 	xori	zero,zero,4162
   40da4:	0004109c 	xori	zero,zero,4162
   40da8:	0004109c 	xori	zero,zero,4162
   40dac:	000417e0 	cmpeqi	zero,zero,4191
   40db0:	000417d0 	cmplti	zero,zero,4191
   40db4:	00041884 	movi	zero,4194
   40db8:	00041884 	movi	zero,4194
   40dbc:	000417ec 	andhi	zero,zero,4191
   40dc0:	00041884 	movi	zero,4194
   40dc4:	000417fc 	xorhi	zero,zero,4191
   40dc8:	000416d0 	cmplti	zero,zero,4187
   40dcc:	00040e0c 	andi	zero,zero,4152
   40dd0:	000416f0 	cmpltui	zero,zero,4187
   40dd4:	00041884 	movi	zero,4194
   40dd8:	000416fc 	xorhi	zero,zero,4187
   40ddc:	00041884 	movi	zero,4194
   40de0:	00041758 	cmpnei	zero,zero,4189
   40de4:	00041884 	movi	zero,4194
   40de8:	00041884 	movi	zero,4194
   40dec:	00041768 	cmpgeui	zero,zero,4189
   40df0:	d9003117 	ldw	r4,196(sp)
   40df4:	d8802d15 	stw	r2,180(sp)
   40df8:	0109c83a 	sub	r4,zero,r4
   40dfc:	d9003115 	stw	r4,196(sp)
   40e00:	94800114 	ori	r18,r18,4
   40e04:	ac400007 	ldb	r17,0(r21)
   40e08:	003f9706 	br	40c68 <__alt_data_end+0xfffcec68>
   40e0c:	00800c04 	movi	r2,48
   40e10:	d9002d17 	ldw	r4,180(sp)
   40e14:	d9402917 	ldw	r5,164(sp)
   40e18:	d8802705 	stb	r2,156(sp)
   40e1c:	00801e04 	movi	r2,120
   40e20:	d8802745 	stb	r2,157(sp)
   40e24:	d8002785 	stb	zero,158(sp)
   40e28:	20c00104 	addi	r3,r4,4
   40e2c:	24c00017 	ldw	r19,0(r4)
   40e30:	002d883a 	mov	r22,zero
   40e34:	90800094 	ori	r2,r18,2
   40e38:	28029a16 	blt	r5,zero,418a4 <___vfprintf_internal_r+0xdc0>
   40e3c:	00bfdfc4 	movi	r2,-129
   40e40:	90a4703a 	and	r18,r18,r2
   40e44:	d8c02d15 	stw	r3,180(sp)
   40e48:	94800094 	ori	r18,r18,2
   40e4c:	9802871e 	bne	r19,zero,4186c <___vfprintf_internal_r+0xd88>
   40e50:	00800174 	movhi	r2,5
   40e54:	109bce04 	addi	r2,r2,28472
   40e58:	d8803915 	stw	r2,228(sp)
   40e5c:	04401e04 	movi	r17,120
   40e60:	d8802917 	ldw	r2,164(sp)
   40e64:	0039883a 	mov	fp,zero
   40e68:	1001e926 	beq	r2,zero,41610 <___vfprintf_internal_r+0xb2c>
   40e6c:	0027883a 	mov	r19,zero
   40e70:	002d883a 	mov	r22,zero
   40e74:	00020506 	br	4168c <___vfprintf_internal_r+0xba8>
   40e78:	d9002c17 	ldw	r4,176(sp)
   40e7c:	b80b883a 	mov	r5,r23
   40e80:	00446400 	call	44640 <__swsetup_r>
   40e84:	1005ac1e 	bne	r2,zero,42538 <___vfprintf_internal_r+0x1a54>
   40e88:	b880030b 	ldhu	r2,12(r23)
   40e8c:	00c00284 	movi	r3,10
   40e90:	1080068c 	andi	r2,r2,26
   40e94:	10ff3c1e 	bne	r2,r3,40b88 <__alt_data_end+0xfffceb88>
   40e98:	b880038f 	ldh	r2,14(r23)
   40e9c:	103f3a16 	blt	r2,zero,40b88 <__alt_data_end+0xfffceb88>
   40ea0:	d9c02d17 	ldw	r7,180(sp)
   40ea4:	d9002c17 	ldw	r4,176(sp)
   40ea8:	a80d883a 	mov	r6,r21
   40eac:	b80b883a 	mov	r5,r23
   40eb0:	0042cf80 	call	42cf8 <__sbprintf>
   40eb4:	00001106 	br	40efc <___vfprintf_internal_r+0x418>
   40eb8:	d9002c17 	ldw	r4,176(sp)
   40ebc:	d9801e04 	addi	r6,sp,120
   40ec0:	b80b883a 	mov	r5,r23
   40ec4:	004e8780 	call	4e878 <__sprint_r>
   40ec8:	1000081e 	bne	r2,zero,40eec <___vfprintf_internal_r+0x408>
   40ecc:	da000404 	addi	r8,sp,16
   40ed0:	003f5306 	br	40c20 <__alt_data_end+0xfffcec20>
   40ed4:	d8802017 	ldw	r2,128(sp)
   40ed8:	10000426 	beq	r2,zero,40eec <___vfprintf_internal_r+0x408>
   40edc:	d9002c17 	ldw	r4,176(sp)
   40ee0:	d9801e04 	addi	r6,sp,120
   40ee4:	b80b883a 	mov	r5,r23
   40ee8:	004e8780 	call	4e878 <__sprint_r>
   40eec:	b880030b 	ldhu	r2,12(r23)
   40ef0:	1080100c 	andi	r2,r2,64
   40ef4:	1005901e 	bne	r2,zero,42538 <___vfprintf_internal_r+0x1a54>
   40ef8:	d8802f17 	ldw	r2,188(sp)
   40efc:	dfc04717 	ldw	ra,284(sp)
   40f00:	df004617 	ldw	fp,280(sp)
   40f04:	ddc04517 	ldw	r23,276(sp)
   40f08:	dd804417 	ldw	r22,272(sp)
   40f0c:	dd404317 	ldw	r21,268(sp)
   40f10:	dd004217 	ldw	r20,264(sp)
   40f14:	dcc04117 	ldw	r19,260(sp)
   40f18:	dc804017 	ldw	r18,256(sp)
   40f1c:	dc403f17 	ldw	r17,252(sp)
   40f20:	dc003e17 	ldw	r16,248(sp)
   40f24:	dec04804 	addi	sp,sp,288
   40f28:	f800283a 	ret
   40f2c:	d9002c17 	ldw	r4,176(sp)
   40f30:	00466140 	call	46614 <__sinit>
   40f34:	003f0406 	br	40b48 <__alt_data_end+0xfffceb48>
   40f38:	d8802d17 	ldw	r2,180(sp)
   40f3c:	d9002d17 	ldw	r4,180(sp)
   40f40:	10800017 	ldw	r2,0(r2)
   40f44:	d8803115 	stw	r2,196(sp)
   40f48:	20800104 	addi	r2,r4,4
   40f4c:	d9003117 	ldw	r4,196(sp)
   40f50:	203fa716 	blt	r4,zero,40df0 <__alt_data_end+0xfffcedf0>
   40f54:	d8802d15 	stw	r2,180(sp)
   40f58:	ac400007 	ldb	r17,0(r21)
   40f5c:	003f4206 	br	40c68 <__alt_data_end+0xfffcec68>
   40f60:	ac400007 	ldb	r17,0(r21)
   40f64:	aac00044 	addi	r11,r21,1
   40f68:	8a872826 	beq	r17,r10,42c0c <___vfprintf_internal_r+0x2128>
   40f6c:	88bff404 	addi	r2,r17,-48
   40f70:	0009883a 	mov	r4,zero
   40f74:	30867d36 	bltu	r6,r2,4296c <___vfprintf_internal_r+0x1e88>
   40f78:	5c400007 	ldb	r17,0(r11)
   40f7c:	210002a4 	muli	r4,r4,10
   40f80:	5d400044 	addi	r21,r11,1
   40f84:	a817883a 	mov	r11,r21
   40f88:	2089883a 	add	r4,r4,r2
   40f8c:	88bff404 	addi	r2,r17,-48
   40f90:	30bff92e 	bgeu	r6,r2,40f78 <__alt_data_end+0xfffcef78>
   40f94:	2005c916 	blt	r4,zero,426bc <___vfprintf_internal_r+0x1bd8>
   40f98:	d9002915 	stw	r4,164(sp)
   40f9c:	003f3306 	br	40c6c <__alt_data_end+0xfffcec6c>
   40fa0:	94802014 	ori	r18,r18,128
   40fa4:	ac400007 	ldb	r17,0(r21)
   40fa8:	003f2f06 	br	40c68 <__alt_data_end+0xfffcec68>
   40fac:	a809883a 	mov	r4,r21
   40fb0:	d8003115 	stw	zero,196(sp)
   40fb4:	88bff404 	addi	r2,r17,-48
   40fb8:	0017883a 	mov	r11,zero
   40fbc:	24400007 	ldb	r17,0(r4)
   40fc0:	5ac002a4 	muli	r11,r11,10
   40fc4:	ad400044 	addi	r21,r21,1
   40fc8:	a809883a 	mov	r4,r21
   40fcc:	12d7883a 	add	r11,r2,r11
   40fd0:	88bff404 	addi	r2,r17,-48
   40fd4:	30bff92e 	bgeu	r6,r2,40fbc <__alt_data_end+0xfffcefbc>
   40fd8:	dac03115 	stw	r11,196(sp)
   40fdc:	003f2306 	br	40c6c <__alt_data_end+0xfffcec6c>
   40fe0:	18c03fcc 	andi	r3,r3,255
   40fe4:	18072b1e 	bne	r3,zero,42c94 <___vfprintf_internal_r+0x21b0>
   40fe8:	94800414 	ori	r18,r18,16
   40fec:	9080080c 	andi	r2,r18,32
   40ff0:	10037b26 	beq	r2,zero,41de0 <___vfprintf_internal_r+0x12fc>
   40ff4:	d9402d17 	ldw	r5,180(sp)
   40ff8:	28800117 	ldw	r2,4(r5)
   40ffc:	2cc00017 	ldw	r19,0(r5)
   41000:	29400204 	addi	r5,r5,8
   41004:	d9402d15 	stw	r5,180(sp)
   41008:	102d883a 	mov	r22,r2
   4100c:	10044b16 	blt	r2,zero,4213c <___vfprintf_internal_r+0x1658>
   41010:	d9402917 	ldw	r5,164(sp)
   41014:	df002783 	ldbu	fp,158(sp)
   41018:	2803bc16 	blt	r5,zero,41f0c <___vfprintf_internal_r+0x1428>
   4101c:	00ffdfc4 	movi	r3,-129
   41020:	9d84b03a 	or	r2,r19,r22
   41024:	90e4703a 	and	r18,r18,r3
   41028:	10017726 	beq	r2,zero,41608 <___vfprintf_internal_r+0xb24>
   4102c:	b0038326 	beq	r22,zero,41e3c <___vfprintf_internal_r+0x1358>
   41030:	dc402a15 	stw	r17,168(sp)
   41034:	dc001e04 	addi	r16,sp,120
   41038:	b023883a 	mov	r17,r22
   4103c:	402d883a 	mov	r22,r8
   41040:	9809883a 	mov	r4,r19
   41044:	880b883a 	mov	r5,r17
   41048:	01800284 	movi	r6,10
   4104c:	000f883a 	mov	r7,zero
   41050:	0052dac0 	call	52dac <__umoddi3>
   41054:	10800c04 	addi	r2,r2,48
   41058:	843fffc4 	addi	r16,r16,-1
   4105c:	9809883a 	mov	r4,r19
   41060:	880b883a 	mov	r5,r17
   41064:	80800005 	stb	r2,0(r16)
   41068:	01800284 	movi	r6,10
   4106c:	000f883a 	mov	r7,zero
   41070:	00528340 	call	52834 <__udivdi3>
   41074:	1027883a 	mov	r19,r2
   41078:	10c4b03a 	or	r2,r2,r3
   4107c:	1823883a 	mov	r17,r3
   41080:	103fef1e 	bne	r2,zero,41040 <__alt_data_end+0xfffcf040>
   41084:	d8c02817 	ldw	r3,160(sp)
   41088:	dc402a17 	ldw	r17,168(sp)
   4108c:	b011883a 	mov	r8,r22
   41090:	1c07c83a 	sub	r3,r3,r16
   41094:	d8c02e15 	stw	r3,184(sp)
   41098:	00005906 	br	41200 <___vfprintf_internal_r+0x71c>
   4109c:	18c03fcc 	andi	r3,r3,255
   410a0:	1806fa1e 	bne	r3,zero,42c8c <___vfprintf_internal_r+0x21a8>
   410a4:	9080020c 	andi	r2,r18,8
   410a8:	10048a26 	beq	r2,zero,422d4 <___vfprintf_internal_r+0x17f0>
   410ac:	d8c02d17 	ldw	r3,180(sp)
   410b0:	d9002d17 	ldw	r4,180(sp)
   410b4:	d9402d17 	ldw	r5,180(sp)
   410b8:	18c00017 	ldw	r3,0(r3)
   410bc:	21000117 	ldw	r4,4(r4)
   410c0:	29400204 	addi	r5,r5,8
   410c4:	d8c03615 	stw	r3,216(sp)
   410c8:	d9003815 	stw	r4,224(sp)
   410cc:	d9402d15 	stw	r5,180(sp)
   410d0:	d9003617 	ldw	r4,216(sp)
   410d4:	d9403817 	ldw	r5,224(sp)
   410d8:	da003d15 	stw	r8,244(sp)
   410dc:	04000044 	movi	r16,1
   410e0:	0049c540 	call	49c54 <__fpclassifyd>
   410e4:	da003d17 	ldw	r8,244(sp)
   410e8:	14041f1e 	bne	r2,r16,42168 <___vfprintf_internal_r+0x1684>
   410ec:	d9003617 	ldw	r4,216(sp)
   410f0:	d9403817 	ldw	r5,224(sp)
   410f4:	000d883a 	mov	r6,zero
   410f8:	000f883a 	mov	r7,zero
   410fc:	005498c0 	call	5498c <__ledf2>
   41100:	da003d17 	ldw	r8,244(sp)
   41104:	1005be16 	blt	r2,zero,42800 <___vfprintf_internal_r+0x1d1c>
   41108:	df002783 	ldbu	fp,158(sp)
   4110c:	008011c4 	movi	r2,71
   41110:	1445330e 	bge	r2,r17,425e0 <___vfprintf_internal_r+0x1afc>
   41114:	04000174 	movhi	r16,5
   41118:	841bc604 	addi	r16,r16,28440
   4111c:	00c000c4 	movi	r3,3
   41120:	00bfdfc4 	movi	r2,-129
   41124:	d8c02a15 	stw	r3,168(sp)
   41128:	90a4703a 	and	r18,r18,r2
   4112c:	d8c02e15 	stw	r3,184(sp)
   41130:	d8002915 	stw	zero,164(sp)
   41134:	d8003215 	stw	zero,200(sp)
   41138:	00003706 	br	41218 <___vfprintf_internal_r+0x734>
   4113c:	94800214 	ori	r18,r18,8
   41140:	ac400007 	ldb	r17,0(r21)
   41144:	003ec806 	br	40c68 <__alt_data_end+0xfffcec68>
   41148:	18c03fcc 	andi	r3,r3,255
   4114c:	1806db1e 	bne	r3,zero,42cbc <___vfprintf_internal_r+0x21d8>
   41150:	94800414 	ori	r18,r18,16
   41154:	9080080c 	andi	r2,r18,32
   41158:	1002d826 	beq	r2,zero,41cbc <___vfprintf_internal_r+0x11d8>
   4115c:	d9402d17 	ldw	r5,180(sp)
   41160:	d8c02917 	ldw	r3,164(sp)
   41164:	d8002785 	stb	zero,158(sp)
   41168:	28800204 	addi	r2,r5,8
   4116c:	2cc00017 	ldw	r19,0(r5)
   41170:	2d800117 	ldw	r22,4(r5)
   41174:	18048f16 	blt	r3,zero,423b4 <___vfprintf_internal_r+0x18d0>
   41178:	013fdfc4 	movi	r4,-129
   4117c:	9d86b03a 	or	r3,r19,r22
   41180:	d8802d15 	stw	r2,180(sp)
   41184:	9124703a 	and	r18,r18,r4
   41188:	1802d91e 	bne	r3,zero,41cf0 <___vfprintf_internal_r+0x120c>
   4118c:	d8c02917 	ldw	r3,164(sp)
   41190:	0039883a 	mov	fp,zero
   41194:	1805c326 	beq	r3,zero,428a4 <___vfprintf_internal_r+0x1dc0>
   41198:	0027883a 	mov	r19,zero
   4119c:	002d883a 	mov	r22,zero
   411a0:	dc001e04 	addi	r16,sp,120
   411a4:	9806d0fa 	srli	r3,r19,3
   411a8:	b008977a 	slli	r4,r22,29
   411ac:	b02cd0fa 	srli	r22,r22,3
   411b0:	9cc001cc 	andi	r19,r19,7
   411b4:	98800c04 	addi	r2,r19,48
   411b8:	843fffc4 	addi	r16,r16,-1
   411bc:	20e6b03a 	or	r19,r4,r3
   411c0:	80800005 	stb	r2,0(r16)
   411c4:	9d86b03a 	or	r3,r19,r22
   411c8:	183ff61e 	bne	r3,zero,411a4 <__alt_data_end+0xfffcf1a4>
   411cc:	90c0004c 	andi	r3,r18,1
   411d0:	18013b26 	beq	r3,zero,416c0 <___vfprintf_internal_r+0xbdc>
   411d4:	10803fcc 	andi	r2,r2,255
   411d8:	1080201c 	xori	r2,r2,128
   411dc:	10bfe004 	addi	r2,r2,-128
   411e0:	00c00c04 	movi	r3,48
   411e4:	10c13626 	beq	r2,r3,416c0 <___vfprintf_internal_r+0xbdc>
   411e8:	80ffffc5 	stb	r3,-1(r16)
   411ec:	d8c02817 	ldw	r3,160(sp)
   411f0:	80bfffc4 	addi	r2,r16,-1
   411f4:	1021883a 	mov	r16,r2
   411f8:	1887c83a 	sub	r3,r3,r2
   411fc:	d8c02e15 	stw	r3,184(sp)
   41200:	d8802e17 	ldw	r2,184(sp)
   41204:	d9002917 	ldw	r4,164(sp)
   41208:	1100010e 	bge	r2,r4,41210 <___vfprintf_internal_r+0x72c>
   4120c:	2005883a 	mov	r2,r4
   41210:	d8802a15 	stw	r2,168(sp)
   41214:	d8003215 	stw	zero,200(sp)
   41218:	e7003fcc 	andi	fp,fp,255
   4121c:	e700201c 	xori	fp,fp,128
   41220:	e73fe004 	addi	fp,fp,-128
   41224:	e0000326 	beq	fp,zero,41234 <___vfprintf_internal_r+0x750>
   41228:	d8c02a17 	ldw	r3,168(sp)
   4122c:	18c00044 	addi	r3,r3,1
   41230:	d8c02a15 	stw	r3,168(sp)
   41234:	90c0008c 	andi	r3,r18,2
   41238:	d8c02b15 	stw	r3,172(sp)
   4123c:	18000326 	beq	r3,zero,4124c <___vfprintf_internal_r+0x768>
   41240:	d8c02a17 	ldw	r3,168(sp)
   41244:	18c00084 	addi	r3,r3,2
   41248:	d8c02a15 	stw	r3,168(sp)
   4124c:	90c0210c 	andi	r3,r18,132
   41250:	d8c03015 	stw	r3,192(sp)
   41254:	1801a31e 	bne	r3,zero,418e4 <___vfprintf_internal_r+0xe00>
   41258:	d9003117 	ldw	r4,196(sp)
   4125c:	d8c02a17 	ldw	r3,168(sp)
   41260:	20e7c83a 	sub	r19,r4,r3
   41264:	04c19f0e 	bge	zero,r19,418e4 <___vfprintf_internal_r+0xe00>
   41268:	02400404 	movi	r9,16
   4126c:	d8c02017 	ldw	r3,128(sp)
   41270:	d8801f17 	ldw	r2,124(sp)
   41274:	4cc50d0e 	bge	r9,r19,426ac <___vfprintf_internal_r+0x1bc8>
   41278:	01400174 	movhi	r5,5
   4127c:	295bd984 	addi	r5,r5,28518
   41280:	dc403b15 	stw	r17,236(sp)
   41284:	d9403515 	stw	r5,212(sp)
   41288:	9823883a 	mov	r17,r19
   4128c:	482d883a 	mov	r22,r9
   41290:	9027883a 	mov	r19,r18
   41294:	070001c4 	movi	fp,7
   41298:	8025883a 	mov	r18,r16
   4129c:	dc002c17 	ldw	r16,176(sp)
   412a0:	00000306 	br	412b0 <___vfprintf_internal_r+0x7cc>
   412a4:	8c7ffc04 	addi	r17,r17,-16
   412a8:	42000204 	addi	r8,r8,8
   412ac:	b440130e 	bge	r22,r17,412fc <___vfprintf_internal_r+0x818>
   412b0:	01000174 	movhi	r4,5
   412b4:	18c00404 	addi	r3,r3,16
   412b8:	10800044 	addi	r2,r2,1
   412bc:	211bd984 	addi	r4,r4,28518
   412c0:	41000015 	stw	r4,0(r8)
   412c4:	45800115 	stw	r22,4(r8)
   412c8:	d8c02015 	stw	r3,128(sp)
   412cc:	d8801f15 	stw	r2,124(sp)
   412d0:	e0bff40e 	bge	fp,r2,412a4 <__alt_data_end+0xfffcf2a4>
   412d4:	d9801e04 	addi	r6,sp,120
   412d8:	b80b883a 	mov	r5,r23
   412dc:	8009883a 	mov	r4,r16
   412e0:	004e8780 	call	4e878 <__sprint_r>
   412e4:	103f011e 	bne	r2,zero,40eec <__alt_data_end+0xfffceeec>
   412e8:	8c7ffc04 	addi	r17,r17,-16
   412ec:	d8c02017 	ldw	r3,128(sp)
   412f0:	d8801f17 	ldw	r2,124(sp)
   412f4:	da000404 	addi	r8,sp,16
   412f8:	b47fed16 	blt	r22,r17,412b0 <__alt_data_end+0xfffcf2b0>
   412fc:	9021883a 	mov	r16,r18
   41300:	9825883a 	mov	r18,r19
   41304:	8827883a 	mov	r19,r17
   41308:	dc403b17 	ldw	r17,236(sp)
   4130c:	d9403517 	ldw	r5,212(sp)
   41310:	98c7883a 	add	r3,r19,r3
   41314:	10800044 	addi	r2,r2,1
   41318:	41400015 	stw	r5,0(r8)
   4131c:	44c00115 	stw	r19,4(r8)
   41320:	d8c02015 	stw	r3,128(sp)
   41324:	d8801f15 	stw	r2,124(sp)
   41328:	010001c4 	movi	r4,7
   4132c:	2082a316 	blt	r4,r2,41dbc <___vfprintf_internal_r+0x12d8>
   41330:	df002787 	ldb	fp,158(sp)
   41334:	42000204 	addi	r8,r8,8
   41338:	e0000c26 	beq	fp,zero,4136c <___vfprintf_internal_r+0x888>
   4133c:	d8801f17 	ldw	r2,124(sp)
   41340:	d9002784 	addi	r4,sp,158
   41344:	18c00044 	addi	r3,r3,1
   41348:	10800044 	addi	r2,r2,1
   4134c:	41000015 	stw	r4,0(r8)
   41350:	01000044 	movi	r4,1
   41354:	41000115 	stw	r4,4(r8)
   41358:	d8c02015 	stw	r3,128(sp)
   4135c:	d8801f15 	stw	r2,124(sp)
   41360:	010001c4 	movi	r4,7
   41364:	20823c16 	blt	r4,r2,41c58 <___vfprintf_internal_r+0x1174>
   41368:	42000204 	addi	r8,r8,8
   4136c:	d8802b17 	ldw	r2,172(sp)
   41370:	10000c26 	beq	r2,zero,413a4 <___vfprintf_internal_r+0x8c0>
   41374:	d8801f17 	ldw	r2,124(sp)
   41378:	d9002704 	addi	r4,sp,156
   4137c:	18c00084 	addi	r3,r3,2
   41380:	10800044 	addi	r2,r2,1
   41384:	41000015 	stw	r4,0(r8)
   41388:	01000084 	movi	r4,2
   4138c:	41000115 	stw	r4,4(r8)
   41390:	d8c02015 	stw	r3,128(sp)
   41394:	d8801f15 	stw	r2,124(sp)
   41398:	010001c4 	movi	r4,7
   4139c:	20823616 	blt	r4,r2,41c78 <___vfprintf_internal_r+0x1194>
   413a0:	42000204 	addi	r8,r8,8
   413a4:	d9003017 	ldw	r4,192(sp)
   413a8:	00802004 	movi	r2,128
   413ac:	20819926 	beq	r4,r2,41a14 <___vfprintf_internal_r+0xf30>
   413b0:	d9402917 	ldw	r5,164(sp)
   413b4:	d8802e17 	ldw	r2,184(sp)
   413b8:	28adc83a 	sub	r22,r5,r2
   413bc:	0580310e 	bge	zero,r22,41484 <___vfprintf_internal_r+0x9a0>
   413c0:	07000404 	movi	fp,16
   413c4:	d8801f17 	ldw	r2,124(sp)
   413c8:	e584140e 	bge	fp,r22,4241c <___vfprintf_internal_r+0x1938>
   413cc:	01400174 	movhi	r5,5
   413d0:	295bd584 	addi	r5,r5,28502
   413d4:	dc402915 	stw	r17,164(sp)
   413d8:	d9402b15 	stw	r5,172(sp)
   413dc:	b023883a 	mov	r17,r22
   413e0:	04c001c4 	movi	r19,7
   413e4:	a82d883a 	mov	r22,r21
   413e8:	902b883a 	mov	r21,r18
   413ec:	8025883a 	mov	r18,r16
   413f0:	dc002c17 	ldw	r16,176(sp)
   413f4:	00000306 	br	41404 <___vfprintf_internal_r+0x920>
   413f8:	8c7ffc04 	addi	r17,r17,-16
   413fc:	42000204 	addi	r8,r8,8
   41400:	e440110e 	bge	fp,r17,41448 <___vfprintf_internal_r+0x964>
   41404:	18c00404 	addi	r3,r3,16
   41408:	10800044 	addi	r2,r2,1
   4140c:	45000015 	stw	r20,0(r8)
   41410:	47000115 	stw	fp,4(r8)
   41414:	d8c02015 	stw	r3,128(sp)
   41418:	d8801f15 	stw	r2,124(sp)
   4141c:	98bff60e 	bge	r19,r2,413f8 <__alt_data_end+0xfffcf3f8>
   41420:	d9801e04 	addi	r6,sp,120
   41424:	b80b883a 	mov	r5,r23
   41428:	8009883a 	mov	r4,r16
   4142c:	004e8780 	call	4e878 <__sprint_r>
   41430:	103eae1e 	bne	r2,zero,40eec <__alt_data_end+0xfffceeec>
   41434:	8c7ffc04 	addi	r17,r17,-16
   41438:	d8c02017 	ldw	r3,128(sp)
   4143c:	d8801f17 	ldw	r2,124(sp)
   41440:	da000404 	addi	r8,sp,16
   41444:	e47fef16 	blt	fp,r17,41404 <__alt_data_end+0xfffcf404>
   41448:	9021883a 	mov	r16,r18
   4144c:	a825883a 	mov	r18,r21
   41450:	b02b883a 	mov	r21,r22
   41454:	882d883a 	mov	r22,r17
   41458:	dc402917 	ldw	r17,164(sp)
   4145c:	d9002b17 	ldw	r4,172(sp)
   41460:	1d87883a 	add	r3,r3,r22
   41464:	10800044 	addi	r2,r2,1
   41468:	41000015 	stw	r4,0(r8)
   4146c:	45800115 	stw	r22,4(r8)
   41470:	d8c02015 	stw	r3,128(sp)
   41474:	d8801f15 	stw	r2,124(sp)
   41478:	010001c4 	movi	r4,7
   4147c:	2081ee16 	blt	r4,r2,41c38 <___vfprintf_internal_r+0x1154>
   41480:	42000204 	addi	r8,r8,8
   41484:	9080400c 	andi	r2,r18,256
   41488:	1001181e 	bne	r2,zero,418ec <___vfprintf_internal_r+0xe08>
   4148c:	d9402e17 	ldw	r5,184(sp)
   41490:	d8801f17 	ldw	r2,124(sp)
   41494:	44000015 	stw	r16,0(r8)
   41498:	1947883a 	add	r3,r3,r5
   4149c:	10800044 	addi	r2,r2,1
   414a0:	41400115 	stw	r5,4(r8)
   414a4:	d8c02015 	stw	r3,128(sp)
   414a8:	d8801f15 	stw	r2,124(sp)
   414ac:	010001c4 	movi	r4,7
   414b0:	2081d316 	blt	r4,r2,41c00 <___vfprintf_internal_r+0x111c>
   414b4:	42000204 	addi	r8,r8,8
   414b8:	9480010c 	andi	r18,r18,4
   414bc:	90003226 	beq	r18,zero,41588 <___vfprintf_internal_r+0xaa4>
   414c0:	d9403117 	ldw	r5,196(sp)
   414c4:	d8802a17 	ldw	r2,168(sp)
   414c8:	28a1c83a 	sub	r16,r5,r2
   414cc:	04002e0e 	bge	zero,r16,41588 <___vfprintf_internal_r+0xaa4>
   414d0:	04400404 	movi	r17,16
   414d4:	d8801f17 	ldw	r2,124(sp)
   414d8:	8c04a20e 	bge	r17,r16,42764 <___vfprintf_internal_r+0x1c80>
   414dc:	01400174 	movhi	r5,5
   414e0:	295bd984 	addi	r5,r5,28518
   414e4:	d9403515 	stw	r5,212(sp)
   414e8:	048001c4 	movi	r18,7
   414ec:	dcc02c17 	ldw	r19,176(sp)
   414f0:	00000306 	br	41500 <___vfprintf_internal_r+0xa1c>
   414f4:	843ffc04 	addi	r16,r16,-16
   414f8:	42000204 	addi	r8,r8,8
   414fc:	8c00130e 	bge	r17,r16,4154c <___vfprintf_internal_r+0xa68>
   41500:	01000174 	movhi	r4,5
   41504:	18c00404 	addi	r3,r3,16
   41508:	10800044 	addi	r2,r2,1
   4150c:	211bd984 	addi	r4,r4,28518
   41510:	41000015 	stw	r4,0(r8)
   41514:	44400115 	stw	r17,4(r8)
   41518:	d8c02015 	stw	r3,128(sp)
   4151c:	d8801f15 	stw	r2,124(sp)
   41520:	90bff40e 	bge	r18,r2,414f4 <__alt_data_end+0xfffcf4f4>
   41524:	d9801e04 	addi	r6,sp,120
   41528:	b80b883a 	mov	r5,r23
   4152c:	9809883a 	mov	r4,r19
   41530:	004e8780 	call	4e878 <__sprint_r>
   41534:	103e6d1e 	bne	r2,zero,40eec <__alt_data_end+0xfffceeec>
   41538:	843ffc04 	addi	r16,r16,-16
   4153c:	d8c02017 	ldw	r3,128(sp)
   41540:	d8801f17 	ldw	r2,124(sp)
   41544:	da000404 	addi	r8,sp,16
   41548:	8c3fed16 	blt	r17,r16,41500 <__alt_data_end+0xfffcf500>
   4154c:	d9403517 	ldw	r5,212(sp)
   41550:	1c07883a 	add	r3,r3,r16
   41554:	10800044 	addi	r2,r2,1
   41558:	41400015 	stw	r5,0(r8)
   4155c:	44000115 	stw	r16,4(r8)
   41560:	d8c02015 	stw	r3,128(sp)
   41564:	d8801f15 	stw	r2,124(sp)
   41568:	010001c4 	movi	r4,7
   4156c:	2080060e 	bge	r4,r2,41588 <___vfprintf_internal_r+0xaa4>
   41570:	d9002c17 	ldw	r4,176(sp)
   41574:	d9801e04 	addi	r6,sp,120
   41578:	b80b883a 	mov	r5,r23
   4157c:	004e8780 	call	4e878 <__sprint_r>
   41580:	103e5a1e 	bne	r2,zero,40eec <__alt_data_end+0xfffceeec>
   41584:	d8c02017 	ldw	r3,128(sp)
   41588:	d8803117 	ldw	r2,196(sp)
   4158c:	d9002a17 	ldw	r4,168(sp)
   41590:	1100010e 	bge	r2,r4,41598 <___vfprintf_internal_r+0xab4>
   41594:	2005883a 	mov	r2,r4
   41598:	d9402f17 	ldw	r5,188(sp)
   4159c:	288b883a 	add	r5,r5,r2
   415a0:	d9402f15 	stw	r5,188(sp)
   415a4:	18019e1e 	bne	r3,zero,41c20 <___vfprintf_internal_r+0x113c>
   415a8:	a8800007 	ldb	r2,0(r21)
   415ac:	d8001f15 	stw	zero,124(sp)
   415b0:	da000404 	addi	r8,sp,16
   415b4:	103d851e 	bne	r2,zero,40bcc <__alt_data_end+0xfffcebcc>
   415b8:	a821883a 	mov	r16,r21
   415bc:	003d9b06 	br	40c2c <__alt_data_end+0xfffcec2c>
   415c0:	18c03fcc 	andi	r3,r3,255
   415c4:	1805c11e 	bne	r3,zero,42ccc <___vfprintf_internal_r+0x21e8>
   415c8:	94800414 	ori	r18,r18,16
   415cc:	9080080c 	andi	r2,r18,32
   415d0:	10020c26 	beq	r2,zero,41e04 <___vfprintf_internal_r+0x1320>
   415d4:	d8802d17 	ldw	r2,180(sp)
   415d8:	d9002917 	ldw	r4,164(sp)
   415dc:	d8002785 	stb	zero,158(sp)
   415e0:	10c00204 	addi	r3,r2,8
   415e4:	14c00017 	ldw	r19,0(r2)
   415e8:	15800117 	ldw	r22,4(r2)
   415ec:	20040f16 	blt	r4,zero,4262c <___vfprintf_internal_r+0x1b48>
   415f0:	013fdfc4 	movi	r4,-129
   415f4:	9d84b03a 	or	r2,r19,r22
   415f8:	d8c02d15 	stw	r3,180(sp)
   415fc:	9124703a 	and	r18,r18,r4
   41600:	0039883a 	mov	fp,zero
   41604:	103e891e 	bne	r2,zero,4102c <__alt_data_end+0xfffcf02c>
   41608:	d9002917 	ldw	r4,164(sp)
   4160c:	2002c11e 	bne	r4,zero,42114 <___vfprintf_internal_r+0x1630>
   41610:	d8002915 	stw	zero,164(sp)
   41614:	d8002e15 	stw	zero,184(sp)
   41618:	dc001e04 	addi	r16,sp,120
   4161c:	003ef806 	br	41200 <__alt_data_end+0xfffcf200>
   41620:	18c03fcc 	andi	r3,r3,255
   41624:	18059d1e 	bne	r3,zero,42c9c <___vfprintf_internal_r+0x21b8>
   41628:	01400174 	movhi	r5,5
   4162c:	295bc904 	addi	r5,r5,28452
   41630:	d9403915 	stw	r5,228(sp)
   41634:	9080080c 	andi	r2,r18,32
   41638:	10005226 	beq	r2,zero,41784 <___vfprintf_internal_r+0xca0>
   4163c:	d8802d17 	ldw	r2,180(sp)
   41640:	14c00017 	ldw	r19,0(r2)
   41644:	15800117 	ldw	r22,4(r2)
   41648:	10800204 	addi	r2,r2,8
   4164c:	d8802d15 	stw	r2,180(sp)
   41650:	9080004c 	andi	r2,r18,1
   41654:	10019026 	beq	r2,zero,41c98 <___vfprintf_internal_r+0x11b4>
   41658:	9d84b03a 	or	r2,r19,r22
   4165c:	10036926 	beq	r2,zero,42404 <___vfprintf_internal_r+0x1920>
   41660:	d8c02917 	ldw	r3,164(sp)
   41664:	00800c04 	movi	r2,48
   41668:	d8802705 	stb	r2,156(sp)
   4166c:	dc402745 	stb	r17,157(sp)
   41670:	d8002785 	stb	zero,158(sp)
   41674:	90800094 	ori	r2,r18,2
   41678:	18045d16 	blt	r3,zero,427f0 <___vfprintf_internal_r+0x1d0c>
   4167c:	00bfdfc4 	movi	r2,-129
   41680:	90a4703a 	and	r18,r18,r2
   41684:	94800094 	ori	r18,r18,2
   41688:	0039883a 	mov	fp,zero
   4168c:	d9003917 	ldw	r4,228(sp)
   41690:	dc001e04 	addi	r16,sp,120
   41694:	988003cc 	andi	r2,r19,15
   41698:	b006973a 	slli	r3,r22,28
   4169c:	2085883a 	add	r2,r4,r2
   416a0:	9826d13a 	srli	r19,r19,4
   416a4:	10800003 	ldbu	r2,0(r2)
   416a8:	b02cd13a 	srli	r22,r22,4
   416ac:	843fffc4 	addi	r16,r16,-1
   416b0:	1ce6b03a 	or	r19,r3,r19
   416b4:	80800005 	stb	r2,0(r16)
   416b8:	9d84b03a 	or	r2,r19,r22
   416bc:	103ff51e 	bne	r2,zero,41694 <__alt_data_end+0xfffcf694>
   416c0:	d8c02817 	ldw	r3,160(sp)
   416c4:	1c07c83a 	sub	r3,r3,r16
   416c8:	d8c02e15 	stw	r3,184(sp)
   416cc:	003ecc06 	br	41200 <__alt_data_end+0xfffcf200>
   416d0:	18c03fcc 	andi	r3,r3,255
   416d4:	183e9f26 	beq	r3,zero,41154 <__alt_data_end+0xfffcf154>
   416d8:	d9c02785 	stb	r7,158(sp)
   416dc:	003e9d06 	br	41154 <__alt_data_end+0xfffcf154>
   416e0:	00c00044 	movi	r3,1
   416e4:	01c00ac4 	movi	r7,43
   416e8:	ac400007 	ldb	r17,0(r21)
   416ec:	003d5e06 	br	40c68 <__alt_data_end+0xfffcec68>
   416f0:	94800814 	ori	r18,r18,32
   416f4:	ac400007 	ldb	r17,0(r21)
   416f8:	003d5b06 	br	40c68 <__alt_data_end+0xfffcec68>
   416fc:	d8c02d17 	ldw	r3,180(sp)
   41700:	d8002785 	stb	zero,158(sp)
   41704:	1c000017 	ldw	r16,0(r3)
   41708:	1cc00104 	addi	r19,r3,4
   4170c:	80041926 	beq	r16,zero,42774 <___vfprintf_internal_r+0x1c90>
   41710:	d9002917 	ldw	r4,164(sp)
   41714:	2003d016 	blt	r4,zero,42658 <___vfprintf_internal_r+0x1b74>
   41718:	200d883a 	mov	r6,r4
   4171c:	000b883a 	mov	r5,zero
   41720:	8009883a 	mov	r4,r16
   41724:	da003d15 	stw	r8,244(sp)
   41728:	00480340 	call	48034 <memchr>
   4172c:	da003d17 	ldw	r8,244(sp)
   41730:	10045426 	beq	r2,zero,42884 <___vfprintf_internal_r+0x1da0>
   41734:	1405c83a 	sub	r2,r2,r16
   41738:	d8802e15 	stw	r2,184(sp)
   4173c:	1003cc16 	blt	r2,zero,42670 <___vfprintf_internal_r+0x1b8c>
   41740:	df002783 	ldbu	fp,158(sp)
   41744:	d8802a15 	stw	r2,168(sp)
   41748:	dcc02d15 	stw	r19,180(sp)
   4174c:	d8002915 	stw	zero,164(sp)
   41750:	d8003215 	stw	zero,200(sp)
   41754:	003eb006 	br	41218 <__alt_data_end+0xfffcf218>
   41758:	18c03fcc 	andi	r3,r3,255
   4175c:	183f9b26 	beq	r3,zero,415cc <__alt_data_end+0xfffcf5cc>
   41760:	d9c02785 	stb	r7,158(sp)
   41764:	003f9906 	br	415cc <__alt_data_end+0xfffcf5cc>
   41768:	18c03fcc 	andi	r3,r3,255
   4176c:	1805551e 	bne	r3,zero,42cc4 <___vfprintf_internal_r+0x21e0>
   41770:	01400174 	movhi	r5,5
   41774:	295bce04 	addi	r5,r5,28472
   41778:	d9403915 	stw	r5,228(sp)
   4177c:	9080080c 	andi	r2,r18,32
   41780:	103fae1e 	bne	r2,zero,4163c <__alt_data_end+0xfffcf63c>
   41784:	9080040c 	andi	r2,r18,16
   41788:	1002de26 	beq	r2,zero,42304 <___vfprintf_internal_r+0x1820>
   4178c:	d8c02d17 	ldw	r3,180(sp)
   41790:	002d883a 	mov	r22,zero
   41794:	1cc00017 	ldw	r19,0(r3)
   41798:	18c00104 	addi	r3,r3,4
   4179c:	d8c02d15 	stw	r3,180(sp)
   417a0:	003fab06 	br	41650 <__alt_data_end+0xfffcf650>
   417a4:	38803fcc 	andi	r2,r7,255
   417a8:	1080201c 	xori	r2,r2,128
   417ac:	10bfe004 	addi	r2,r2,-128
   417b0:	1002d21e 	bne	r2,zero,422fc <___vfprintf_internal_r+0x1818>
   417b4:	00c00044 	movi	r3,1
   417b8:	01c00804 	movi	r7,32
   417bc:	ac400007 	ldb	r17,0(r21)
   417c0:	003d2906 	br	40c68 <__alt_data_end+0xfffcec68>
   417c4:	94800054 	ori	r18,r18,1
   417c8:	ac400007 	ldb	r17,0(r21)
   417cc:	003d2606 	br	40c68 <__alt_data_end+0xfffcec68>
   417d0:	18c03fcc 	andi	r3,r3,255
   417d4:	183e0526 	beq	r3,zero,40fec <__alt_data_end+0xfffcefec>
   417d8:	d9c02785 	stb	r7,158(sp)
   417dc:	003e0306 	br	40fec <__alt_data_end+0xfffcefec>
   417e0:	94801014 	ori	r18,r18,64
   417e4:	ac400007 	ldb	r17,0(r21)
   417e8:	003d1f06 	br	40c68 <__alt_data_end+0xfffcec68>
   417ec:	ac400007 	ldb	r17,0(r21)
   417f0:	8a438726 	beq	r17,r9,42610 <___vfprintf_internal_r+0x1b2c>
   417f4:	94800414 	ori	r18,r18,16
   417f8:	003d1b06 	br	40c68 <__alt_data_end+0xfffcec68>
   417fc:	18c03fcc 	andi	r3,r3,255
   41800:	1805341e 	bne	r3,zero,42cd4 <___vfprintf_internal_r+0x21f0>
   41804:	9080080c 	andi	r2,r18,32
   41808:	1002cd26 	beq	r2,zero,42340 <___vfprintf_internal_r+0x185c>
   4180c:	d9402d17 	ldw	r5,180(sp)
   41810:	d9002f17 	ldw	r4,188(sp)
   41814:	28800017 	ldw	r2,0(r5)
   41818:	2007d7fa 	srai	r3,r4,31
   4181c:	29400104 	addi	r5,r5,4
   41820:	d9402d15 	stw	r5,180(sp)
   41824:	11000015 	stw	r4,0(r2)
   41828:	10c00115 	stw	r3,4(r2)
   4182c:	003ce506 	br	40bc4 <__alt_data_end+0xfffcebc4>
   41830:	d8c02d17 	ldw	r3,180(sp)
   41834:	d9002d17 	ldw	r4,180(sp)
   41838:	d8002785 	stb	zero,158(sp)
   4183c:	18800017 	ldw	r2,0(r3)
   41840:	21000104 	addi	r4,r4,4
   41844:	00c00044 	movi	r3,1
   41848:	d8c02a15 	stw	r3,168(sp)
   4184c:	d8801405 	stb	r2,80(sp)
   41850:	d9002d15 	stw	r4,180(sp)
   41854:	d8c02e15 	stw	r3,184(sp)
   41858:	d8002915 	stw	zero,164(sp)
   4185c:	d8003215 	stw	zero,200(sp)
   41860:	dc001404 	addi	r16,sp,80
   41864:	0039883a 	mov	fp,zero
   41868:	003e7206 	br	41234 <__alt_data_end+0xfffcf234>
   4186c:	01000174 	movhi	r4,5
   41870:	211bce04 	addi	r4,r4,28472
   41874:	0039883a 	mov	fp,zero
   41878:	d9003915 	stw	r4,228(sp)
   4187c:	04401e04 	movi	r17,120
   41880:	003f8206 	br	4168c <__alt_data_end+0xfffcf68c>
   41884:	18c03fcc 	andi	r3,r3,255
   41888:	1805061e 	bne	r3,zero,42ca4 <___vfprintf_internal_r+0x21c0>
   4188c:	883d9126 	beq	r17,zero,40ed4 <__alt_data_end+0xfffceed4>
   41890:	00c00044 	movi	r3,1
   41894:	d8c02a15 	stw	r3,168(sp)
   41898:	dc401405 	stb	r17,80(sp)
   4189c:	d8002785 	stb	zero,158(sp)
   418a0:	003fec06 	br	41854 <__alt_data_end+0xfffcf854>
   418a4:	01400174 	movhi	r5,5
   418a8:	295bce04 	addi	r5,r5,28472
   418ac:	d9403915 	stw	r5,228(sp)
   418b0:	d8c02d15 	stw	r3,180(sp)
   418b4:	1025883a 	mov	r18,r2
   418b8:	04401e04 	movi	r17,120
   418bc:	9d84b03a 	or	r2,r19,r22
   418c0:	1000fc1e 	bne	r2,zero,41cb4 <___vfprintf_internal_r+0x11d0>
   418c4:	0039883a 	mov	fp,zero
   418c8:	00800084 	movi	r2,2
   418cc:	10803fcc 	andi	r2,r2,255
   418d0:	00c00044 	movi	r3,1
   418d4:	10c20f26 	beq	r2,r3,42114 <___vfprintf_internal_r+0x1630>
   418d8:	00c00084 	movi	r3,2
   418dc:	10fd6326 	beq	r2,r3,40e6c <__alt_data_end+0xfffcee6c>
   418e0:	003e2d06 	br	41198 <__alt_data_end+0xfffcf198>
   418e4:	d8c02017 	ldw	r3,128(sp)
   418e8:	003e9306 	br	41338 <__alt_data_end+0xfffcf338>
   418ec:	00801944 	movi	r2,101
   418f0:	14407e0e 	bge	r2,r17,41aec <___vfprintf_internal_r+0x1008>
   418f4:	d9003617 	ldw	r4,216(sp)
   418f8:	d9403817 	ldw	r5,224(sp)
   418fc:	000d883a 	mov	r6,zero
   41900:	000f883a 	mov	r7,zero
   41904:	d8c03c15 	stw	r3,240(sp)
   41908:	da003d15 	stw	r8,244(sp)
   4190c:	00548280 	call	54828 <__eqdf2>
   41910:	d8c03c17 	ldw	r3,240(sp)
   41914:	da003d17 	ldw	r8,244(sp)
   41918:	1000f71e 	bne	r2,zero,41cf8 <___vfprintf_internal_r+0x1214>
   4191c:	d8801f17 	ldw	r2,124(sp)
   41920:	01000174 	movhi	r4,5
   41924:	211bd504 	addi	r4,r4,28500
   41928:	18c00044 	addi	r3,r3,1
   4192c:	10800044 	addi	r2,r2,1
   41930:	41000015 	stw	r4,0(r8)
   41934:	01000044 	movi	r4,1
   41938:	41000115 	stw	r4,4(r8)
   4193c:	d8c02015 	stw	r3,128(sp)
   41940:	d8801f15 	stw	r2,124(sp)
   41944:	010001c4 	movi	r4,7
   41948:	2082b816 	blt	r4,r2,4242c <___vfprintf_internal_r+0x1948>
   4194c:	42000204 	addi	r8,r8,8
   41950:	d8802617 	ldw	r2,152(sp)
   41954:	d9403317 	ldw	r5,204(sp)
   41958:	11400216 	blt	r2,r5,41964 <___vfprintf_internal_r+0xe80>
   4195c:	9080004c 	andi	r2,r18,1
   41960:	103ed526 	beq	r2,zero,414b8 <__alt_data_end+0xfffcf4b8>
   41964:	d8803717 	ldw	r2,220(sp)
   41968:	d9003417 	ldw	r4,208(sp)
   4196c:	d9403717 	ldw	r5,220(sp)
   41970:	1887883a 	add	r3,r3,r2
   41974:	d8801f17 	ldw	r2,124(sp)
   41978:	41000015 	stw	r4,0(r8)
   4197c:	41400115 	stw	r5,4(r8)
   41980:	10800044 	addi	r2,r2,1
   41984:	d8c02015 	stw	r3,128(sp)
   41988:	d8801f15 	stw	r2,124(sp)
   4198c:	010001c4 	movi	r4,7
   41990:	20832916 	blt	r4,r2,42638 <___vfprintf_internal_r+0x1b54>
   41994:	42000204 	addi	r8,r8,8
   41998:	d8803317 	ldw	r2,204(sp)
   4199c:	143fffc4 	addi	r16,r2,-1
   419a0:	043ec50e 	bge	zero,r16,414b8 <__alt_data_end+0xfffcf4b8>
   419a4:	04400404 	movi	r17,16
   419a8:	d8801f17 	ldw	r2,124(sp)
   419ac:	8c00880e 	bge	r17,r16,41bd0 <___vfprintf_internal_r+0x10ec>
   419b0:	01400174 	movhi	r5,5
   419b4:	295bd584 	addi	r5,r5,28502
   419b8:	d9402b15 	stw	r5,172(sp)
   419bc:	058001c4 	movi	r22,7
   419c0:	dcc02c17 	ldw	r19,176(sp)
   419c4:	00000306 	br	419d4 <___vfprintf_internal_r+0xef0>
   419c8:	42000204 	addi	r8,r8,8
   419cc:	843ffc04 	addi	r16,r16,-16
   419d0:	8c00820e 	bge	r17,r16,41bdc <___vfprintf_internal_r+0x10f8>
   419d4:	18c00404 	addi	r3,r3,16
   419d8:	10800044 	addi	r2,r2,1
   419dc:	45000015 	stw	r20,0(r8)
   419e0:	44400115 	stw	r17,4(r8)
   419e4:	d8c02015 	stw	r3,128(sp)
   419e8:	d8801f15 	stw	r2,124(sp)
   419ec:	b0bff60e 	bge	r22,r2,419c8 <__alt_data_end+0xfffcf9c8>
   419f0:	d9801e04 	addi	r6,sp,120
   419f4:	b80b883a 	mov	r5,r23
   419f8:	9809883a 	mov	r4,r19
   419fc:	004e8780 	call	4e878 <__sprint_r>
   41a00:	103d3a1e 	bne	r2,zero,40eec <__alt_data_end+0xfffceeec>
   41a04:	d8c02017 	ldw	r3,128(sp)
   41a08:	d8801f17 	ldw	r2,124(sp)
   41a0c:	da000404 	addi	r8,sp,16
   41a10:	003fee06 	br	419cc <__alt_data_end+0xfffcf9cc>
   41a14:	d9403117 	ldw	r5,196(sp)
   41a18:	d8802a17 	ldw	r2,168(sp)
   41a1c:	28adc83a 	sub	r22,r5,r2
   41a20:	05be630e 	bge	zero,r22,413b0 <__alt_data_end+0xfffcf3b0>
   41a24:	07000404 	movi	fp,16
   41a28:	d8801f17 	ldw	r2,124(sp)
   41a2c:	e5838f0e 	bge	fp,r22,4286c <___vfprintf_internal_r+0x1d88>
   41a30:	01400174 	movhi	r5,5
   41a34:	295bd584 	addi	r5,r5,28502
   41a38:	dc403015 	stw	r17,192(sp)
   41a3c:	d9402b15 	stw	r5,172(sp)
   41a40:	b023883a 	mov	r17,r22
   41a44:	04c001c4 	movi	r19,7
   41a48:	a82d883a 	mov	r22,r21
   41a4c:	902b883a 	mov	r21,r18
   41a50:	8025883a 	mov	r18,r16
   41a54:	dc002c17 	ldw	r16,176(sp)
   41a58:	00000306 	br	41a68 <___vfprintf_internal_r+0xf84>
   41a5c:	8c7ffc04 	addi	r17,r17,-16
   41a60:	42000204 	addi	r8,r8,8
   41a64:	e440110e 	bge	fp,r17,41aac <___vfprintf_internal_r+0xfc8>
   41a68:	18c00404 	addi	r3,r3,16
   41a6c:	10800044 	addi	r2,r2,1
   41a70:	45000015 	stw	r20,0(r8)
   41a74:	47000115 	stw	fp,4(r8)
   41a78:	d8c02015 	stw	r3,128(sp)
   41a7c:	d8801f15 	stw	r2,124(sp)
   41a80:	98bff60e 	bge	r19,r2,41a5c <__alt_data_end+0xfffcfa5c>
   41a84:	d9801e04 	addi	r6,sp,120
   41a88:	b80b883a 	mov	r5,r23
   41a8c:	8009883a 	mov	r4,r16
   41a90:	004e8780 	call	4e878 <__sprint_r>
   41a94:	103d151e 	bne	r2,zero,40eec <__alt_data_end+0xfffceeec>
   41a98:	8c7ffc04 	addi	r17,r17,-16
   41a9c:	d8c02017 	ldw	r3,128(sp)
   41aa0:	d8801f17 	ldw	r2,124(sp)
   41aa4:	da000404 	addi	r8,sp,16
   41aa8:	e47fef16 	blt	fp,r17,41a68 <__alt_data_end+0xfffcfa68>
   41aac:	9021883a 	mov	r16,r18
   41ab0:	a825883a 	mov	r18,r21
   41ab4:	b02b883a 	mov	r21,r22
   41ab8:	882d883a 	mov	r22,r17
   41abc:	dc403017 	ldw	r17,192(sp)
   41ac0:	d9002b17 	ldw	r4,172(sp)
   41ac4:	1d87883a 	add	r3,r3,r22
   41ac8:	10800044 	addi	r2,r2,1
   41acc:	41000015 	stw	r4,0(r8)
   41ad0:	45800115 	stw	r22,4(r8)
   41ad4:	d8c02015 	stw	r3,128(sp)
   41ad8:	d8801f15 	stw	r2,124(sp)
   41adc:	010001c4 	movi	r4,7
   41ae0:	20818e16 	blt	r4,r2,4211c <___vfprintf_internal_r+0x1638>
   41ae4:	42000204 	addi	r8,r8,8
   41ae8:	003e3106 	br	413b0 <__alt_data_end+0xfffcf3b0>
   41aec:	d9403317 	ldw	r5,204(sp)
   41af0:	00800044 	movi	r2,1
   41af4:	18c00044 	addi	r3,r3,1
   41af8:	1141530e 	bge	r2,r5,42048 <___vfprintf_internal_r+0x1564>
   41afc:	dc401f17 	ldw	r17,124(sp)
   41b00:	00800044 	movi	r2,1
   41b04:	40800115 	stw	r2,4(r8)
   41b08:	8c400044 	addi	r17,r17,1
   41b0c:	44000015 	stw	r16,0(r8)
   41b10:	d8c02015 	stw	r3,128(sp)
   41b14:	dc401f15 	stw	r17,124(sp)
   41b18:	008001c4 	movi	r2,7
   41b1c:	14416b16 	blt	r2,r17,420cc <___vfprintf_internal_r+0x15e8>
   41b20:	42000204 	addi	r8,r8,8
   41b24:	d8803717 	ldw	r2,220(sp)
   41b28:	d9003417 	ldw	r4,208(sp)
   41b2c:	8c400044 	addi	r17,r17,1
   41b30:	10c7883a 	add	r3,r2,r3
   41b34:	40800115 	stw	r2,4(r8)
   41b38:	41000015 	stw	r4,0(r8)
   41b3c:	d8c02015 	stw	r3,128(sp)
   41b40:	dc401f15 	stw	r17,124(sp)
   41b44:	008001c4 	movi	r2,7
   41b48:	14416916 	blt	r2,r17,420f0 <___vfprintf_internal_r+0x160c>
   41b4c:	45800204 	addi	r22,r8,8
   41b50:	d9003617 	ldw	r4,216(sp)
   41b54:	d9403817 	ldw	r5,224(sp)
   41b58:	000d883a 	mov	r6,zero
   41b5c:	000f883a 	mov	r7,zero
   41b60:	d8c03c15 	stw	r3,240(sp)
   41b64:	00548280 	call	54828 <__eqdf2>
   41b68:	d8c03c17 	ldw	r3,240(sp)
   41b6c:	1000bc26 	beq	r2,zero,41e60 <___vfprintf_internal_r+0x137c>
   41b70:	d9403317 	ldw	r5,204(sp)
   41b74:	84000044 	addi	r16,r16,1
   41b78:	8c400044 	addi	r17,r17,1
   41b7c:	28bfffc4 	addi	r2,r5,-1
   41b80:	1887883a 	add	r3,r3,r2
   41b84:	b0800115 	stw	r2,4(r22)
   41b88:	b4000015 	stw	r16,0(r22)
   41b8c:	d8c02015 	stw	r3,128(sp)
   41b90:	dc401f15 	stw	r17,124(sp)
   41b94:	008001c4 	movi	r2,7
   41b98:	14414316 	blt	r2,r17,420a8 <___vfprintf_internal_r+0x15c4>
   41b9c:	b5800204 	addi	r22,r22,8
   41ba0:	d9003a17 	ldw	r4,232(sp)
   41ba4:	df0022c4 	addi	fp,sp,139
   41ba8:	8c400044 	addi	r17,r17,1
   41bac:	20c7883a 	add	r3,r4,r3
   41bb0:	b7000015 	stw	fp,0(r22)
   41bb4:	b1000115 	stw	r4,4(r22)
   41bb8:	d8c02015 	stw	r3,128(sp)
   41bbc:	dc401f15 	stw	r17,124(sp)
   41bc0:	008001c4 	movi	r2,7
   41bc4:	14400e16 	blt	r2,r17,41c00 <___vfprintf_internal_r+0x111c>
   41bc8:	b2000204 	addi	r8,r22,8
   41bcc:	003e3a06 	br	414b8 <__alt_data_end+0xfffcf4b8>
   41bd0:	01000174 	movhi	r4,5
   41bd4:	211bd584 	addi	r4,r4,28502
   41bd8:	d9002b15 	stw	r4,172(sp)
   41bdc:	d9002b17 	ldw	r4,172(sp)
   41be0:	1c07883a 	add	r3,r3,r16
   41be4:	44000115 	stw	r16,4(r8)
   41be8:	41000015 	stw	r4,0(r8)
   41bec:	10800044 	addi	r2,r2,1
   41bf0:	d8c02015 	stw	r3,128(sp)
   41bf4:	d8801f15 	stw	r2,124(sp)
   41bf8:	010001c4 	movi	r4,7
   41bfc:	20be2d0e 	bge	r4,r2,414b4 <__alt_data_end+0xfffcf4b4>
   41c00:	d9002c17 	ldw	r4,176(sp)
   41c04:	d9801e04 	addi	r6,sp,120
   41c08:	b80b883a 	mov	r5,r23
   41c0c:	004e8780 	call	4e878 <__sprint_r>
   41c10:	103cb61e 	bne	r2,zero,40eec <__alt_data_end+0xfffceeec>
   41c14:	d8c02017 	ldw	r3,128(sp)
   41c18:	da000404 	addi	r8,sp,16
   41c1c:	003e2606 	br	414b8 <__alt_data_end+0xfffcf4b8>
   41c20:	d9002c17 	ldw	r4,176(sp)
   41c24:	d9801e04 	addi	r6,sp,120
   41c28:	b80b883a 	mov	r5,r23
   41c2c:	004e8780 	call	4e878 <__sprint_r>
   41c30:	103e5d26 	beq	r2,zero,415a8 <__alt_data_end+0xfffcf5a8>
   41c34:	003cad06 	br	40eec <__alt_data_end+0xfffceeec>
   41c38:	d9002c17 	ldw	r4,176(sp)
   41c3c:	d9801e04 	addi	r6,sp,120
   41c40:	b80b883a 	mov	r5,r23
   41c44:	004e8780 	call	4e878 <__sprint_r>
   41c48:	103ca81e 	bne	r2,zero,40eec <__alt_data_end+0xfffceeec>
   41c4c:	d8c02017 	ldw	r3,128(sp)
   41c50:	da000404 	addi	r8,sp,16
   41c54:	003e0b06 	br	41484 <__alt_data_end+0xfffcf484>
   41c58:	d9002c17 	ldw	r4,176(sp)
   41c5c:	d9801e04 	addi	r6,sp,120
   41c60:	b80b883a 	mov	r5,r23
   41c64:	004e8780 	call	4e878 <__sprint_r>
   41c68:	103ca01e 	bne	r2,zero,40eec <__alt_data_end+0xfffceeec>
   41c6c:	d8c02017 	ldw	r3,128(sp)
   41c70:	da000404 	addi	r8,sp,16
   41c74:	003dbd06 	br	4136c <__alt_data_end+0xfffcf36c>
   41c78:	d9002c17 	ldw	r4,176(sp)
   41c7c:	d9801e04 	addi	r6,sp,120
   41c80:	b80b883a 	mov	r5,r23
   41c84:	004e8780 	call	4e878 <__sprint_r>
   41c88:	103c981e 	bne	r2,zero,40eec <__alt_data_end+0xfffceeec>
   41c8c:	d8c02017 	ldw	r3,128(sp)
   41c90:	da000404 	addi	r8,sp,16
   41c94:	003dc306 	br	413a4 <__alt_data_end+0xfffcf3a4>
   41c98:	d8802917 	ldw	r2,164(sp)
   41c9c:	d8002785 	stb	zero,158(sp)
   41ca0:	103f0616 	blt	r2,zero,418bc <__alt_data_end+0xfffcf8bc>
   41ca4:	00ffdfc4 	movi	r3,-129
   41ca8:	9d84b03a 	or	r2,r19,r22
   41cac:	90e4703a 	and	r18,r18,r3
   41cb0:	103c6b26 	beq	r2,zero,40e60 <__alt_data_end+0xfffcee60>
   41cb4:	0039883a 	mov	fp,zero
   41cb8:	003e7406 	br	4168c <__alt_data_end+0xfffcf68c>
   41cbc:	9080040c 	andi	r2,r18,16
   41cc0:	1001b326 	beq	r2,zero,42390 <___vfprintf_internal_r+0x18ac>
   41cc4:	d9002d17 	ldw	r4,180(sp)
   41cc8:	d9402917 	ldw	r5,164(sp)
   41ccc:	d8002785 	stb	zero,158(sp)
   41cd0:	20800104 	addi	r2,r4,4
   41cd4:	24c00017 	ldw	r19,0(r4)
   41cd8:	002d883a 	mov	r22,zero
   41cdc:	2801b516 	blt	r5,zero,423b4 <___vfprintf_internal_r+0x18d0>
   41ce0:	00ffdfc4 	movi	r3,-129
   41ce4:	d8802d15 	stw	r2,180(sp)
   41ce8:	90e4703a 	and	r18,r18,r3
   41cec:	983d2726 	beq	r19,zero,4118c <__alt_data_end+0xfffcf18c>
   41cf0:	0039883a 	mov	fp,zero
   41cf4:	003d2a06 	br	411a0 <__alt_data_end+0xfffcf1a0>
   41cf8:	dc402617 	ldw	r17,152(sp)
   41cfc:	0441d30e 	bge	zero,r17,4244c <___vfprintf_internal_r+0x1968>
   41d00:	dc403217 	ldw	r17,200(sp)
   41d04:	d8803317 	ldw	r2,204(sp)
   41d08:	1440010e 	bge	r2,r17,41d10 <___vfprintf_internal_r+0x122c>
   41d0c:	1023883a 	mov	r17,r2
   41d10:	04400a0e 	bge	zero,r17,41d3c <___vfprintf_internal_r+0x1258>
   41d14:	d8801f17 	ldw	r2,124(sp)
   41d18:	1c47883a 	add	r3,r3,r17
   41d1c:	44000015 	stw	r16,0(r8)
   41d20:	10800044 	addi	r2,r2,1
   41d24:	44400115 	stw	r17,4(r8)
   41d28:	d8c02015 	stw	r3,128(sp)
   41d2c:	d8801f15 	stw	r2,124(sp)
   41d30:	010001c4 	movi	r4,7
   41d34:	20826516 	blt	r4,r2,426cc <___vfprintf_internal_r+0x1be8>
   41d38:	42000204 	addi	r8,r8,8
   41d3c:	88026116 	blt	r17,zero,426c4 <___vfprintf_internal_r+0x1be0>
   41d40:	d9003217 	ldw	r4,200(sp)
   41d44:	2463c83a 	sub	r17,r4,r17
   41d48:	04407b0e 	bge	zero,r17,41f38 <___vfprintf_internal_r+0x1454>
   41d4c:	05800404 	movi	r22,16
   41d50:	d8801f17 	ldw	r2,124(sp)
   41d54:	b4419d0e 	bge	r22,r17,423cc <___vfprintf_internal_r+0x18e8>
   41d58:	01000174 	movhi	r4,5
   41d5c:	211bd584 	addi	r4,r4,28502
   41d60:	d9002b15 	stw	r4,172(sp)
   41d64:	070001c4 	movi	fp,7
   41d68:	dcc02c17 	ldw	r19,176(sp)
   41d6c:	00000306 	br	41d7c <___vfprintf_internal_r+0x1298>
   41d70:	42000204 	addi	r8,r8,8
   41d74:	8c7ffc04 	addi	r17,r17,-16
   41d78:	b441970e 	bge	r22,r17,423d8 <___vfprintf_internal_r+0x18f4>
   41d7c:	18c00404 	addi	r3,r3,16
   41d80:	10800044 	addi	r2,r2,1
   41d84:	45000015 	stw	r20,0(r8)
   41d88:	45800115 	stw	r22,4(r8)
   41d8c:	d8c02015 	stw	r3,128(sp)
   41d90:	d8801f15 	stw	r2,124(sp)
   41d94:	e0bff60e 	bge	fp,r2,41d70 <__alt_data_end+0xfffcfd70>
   41d98:	d9801e04 	addi	r6,sp,120
   41d9c:	b80b883a 	mov	r5,r23
   41da0:	9809883a 	mov	r4,r19
   41da4:	004e8780 	call	4e878 <__sprint_r>
   41da8:	103c501e 	bne	r2,zero,40eec <__alt_data_end+0xfffceeec>
   41dac:	d8c02017 	ldw	r3,128(sp)
   41db0:	d8801f17 	ldw	r2,124(sp)
   41db4:	da000404 	addi	r8,sp,16
   41db8:	003fee06 	br	41d74 <__alt_data_end+0xfffcfd74>
   41dbc:	d9002c17 	ldw	r4,176(sp)
   41dc0:	d9801e04 	addi	r6,sp,120
   41dc4:	b80b883a 	mov	r5,r23
   41dc8:	004e8780 	call	4e878 <__sprint_r>
   41dcc:	103c471e 	bne	r2,zero,40eec <__alt_data_end+0xfffceeec>
   41dd0:	d8c02017 	ldw	r3,128(sp)
   41dd4:	df002787 	ldb	fp,158(sp)
   41dd8:	da000404 	addi	r8,sp,16
   41ddc:	003d5606 	br	41338 <__alt_data_end+0xfffcf338>
   41de0:	9080040c 	andi	r2,r18,16
   41de4:	10016126 	beq	r2,zero,4236c <___vfprintf_internal_r+0x1888>
   41de8:	d8802d17 	ldw	r2,180(sp)
   41dec:	14c00017 	ldw	r19,0(r2)
   41df0:	10800104 	addi	r2,r2,4
   41df4:	d8802d15 	stw	r2,180(sp)
   41df8:	982dd7fa 	srai	r22,r19,31
   41dfc:	b005883a 	mov	r2,r22
   41e00:	003c8206 	br	4100c <__alt_data_end+0xfffcf00c>
   41e04:	9080040c 	andi	r2,r18,16
   41e08:	10003526 	beq	r2,zero,41ee0 <___vfprintf_internal_r+0x13fc>
   41e0c:	d9402d17 	ldw	r5,180(sp)
   41e10:	d8c02917 	ldw	r3,164(sp)
   41e14:	d8002785 	stb	zero,158(sp)
   41e18:	28800104 	addi	r2,r5,4
   41e1c:	2cc00017 	ldw	r19,0(r5)
   41e20:	002d883a 	mov	r22,zero
   41e24:	18003716 	blt	r3,zero,41f04 <___vfprintf_internal_r+0x1420>
   41e28:	00ffdfc4 	movi	r3,-129
   41e2c:	d8802d15 	stw	r2,180(sp)
   41e30:	90e4703a 	and	r18,r18,r3
   41e34:	0039883a 	mov	fp,zero
   41e38:	983df326 	beq	r19,zero,41608 <__alt_data_end+0xfffcf608>
   41e3c:	00800244 	movi	r2,9
   41e40:	14fc7b36 	bltu	r2,r19,41030 <__alt_data_end+0xfffcf030>
   41e44:	d8c02817 	ldw	r3,160(sp)
   41e48:	dc001dc4 	addi	r16,sp,119
   41e4c:	9cc00c04 	addi	r19,r19,48
   41e50:	1c07c83a 	sub	r3,r3,r16
   41e54:	dcc01dc5 	stb	r19,119(sp)
   41e58:	d8c02e15 	stw	r3,184(sp)
   41e5c:	003ce806 	br	41200 <__alt_data_end+0xfffcf200>
   41e60:	d8803317 	ldw	r2,204(sp)
   41e64:	143fffc4 	addi	r16,r2,-1
   41e68:	043f4d0e 	bge	zero,r16,41ba0 <__alt_data_end+0xfffcfba0>
   41e6c:	07000404 	movi	fp,16
   41e70:	e400810e 	bge	fp,r16,42078 <___vfprintf_internal_r+0x1594>
   41e74:	01400174 	movhi	r5,5
   41e78:	295bd584 	addi	r5,r5,28502
   41e7c:	d9402b15 	stw	r5,172(sp)
   41e80:	01c001c4 	movi	r7,7
   41e84:	dcc02c17 	ldw	r19,176(sp)
   41e88:	00000306 	br	41e98 <___vfprintf_internal_r+0x13b4>
   41e8c:	b5800204 	addi	r22,r22,8
   41e90:	843ffc04 	addi	r16,r16,-16
   41e94:	e4007b0e 	bge	fp,r16,42084 <___vfprintf_internal_r+0x15a0>
   41e98:	18c00404 	addi	r3,r3,16
   41e9c:	8c400044 	addi	r17,r17,1
   41ea0:	b5000015 	stw	r20,0(r22)
   41ea4:	b7000115 	stw	fp,4(r22)
   41ea8:	d8c02015 	stw	r3,128(sp)
   41eac:	dc401f15 	stw	r17,124(sp)
   41eb0:	3c7ff60e 	bge	r7,r17,41e8c <__alt_data_end+0xfffcfe8c>
   41eb4:	d9801e04 	addi	r6,sp,120
   41eb8:	b80b883a 	mov	r5,r23
   41ebc:	9809883a 	mov	r4,r19
   41ec0:	d9c03c15 	stw	r7,240(sp)
   41ec4:	004e8780 	call	4e878 <__sprint_r>
   41ec8:	d9c03c17 	ldw	r7,240(sp)
   41ecc:	103c071e 	bne	r2,zero,40eec <__alt_data_end+0xfffceeec>
   41ed0:	d8c02017 	ldw	r3,128(sp)
   41ed4:	dc401f17 	ldw	r17,124(sp)
   41ed8:	dd800404 	addi	r22,sp,16
   41edc:	003fec06 	br	41e90 <__alt_data_end+0xfffcfe90>
   41ee0:	9080100c 	andi	r2,r18,64
   41ee4:	d8002785 	stb	zero,158(sp)
   41ee8:	10010e26 	beq	r2,zero,42324 <___vfprintf_internal_r+0x1840>
   41eec:	d9002d17 	ldw	r4,180(sp)
   41ef0:	d9402917 	ldw	r5,164(sp)
   41ef4:	002d883a 	mov	r22,zero
   41ef8:	20800104 	addi	r2,r4,4
   41efc:	24c0000b 	ldhu	r19,0(r4)
   41f00:	283fc90e 	bge	r5,zero,41e28 <__alt_data_end+0xfffcfe28>
   41f04:	d8802d15 	stw	r2,180(sp)
   41f08:	0039883a 	mov	fp,zero
   41f0c:	9d84b03a 	or	r2,r19,r22
   41f10:	103c461e 	bne	r2,zero,4102c <__alt_data_end+0xfffcf02c>
   41f14:	00800044 	movi	r2,1
   41f18:	003e6c06 	br	418cc <__alt_data_end+0xfffcf8cc>
   41f1c:	d9002c17 	ldw	r4,176(sp)
   41f20:	d9801e04 	addi	r6,sp,120
   41f24:	b80b883a 	mov	r5,r23
   41f28:	004e8780 	call	4e878 <__sprint_r>
   41f2c:	103bef1e 	bne	r2,zero,40eec <__alt_data_end+0xfffceeec>
   41f30:	d8c02017 	ldw	r3,128(sp)
   41f34:	da000404 	addi	r8,sp,16
   41f38:	d9003217 	ldw	r4,200(sp)
   41f3c:	d8802617 	ldw	r2,152(sp)
   41f40:	d9403317 	ldw	r5,204(sp)
   41f44:	8123883a 	add	r17,r16,r4
   41f48:	11400216 	blt	r2,r5,41f54 <___vfprintf_internal_r+0x1470>
   41f4c:	9100004c 	andi	r4,r18,1
   41f50:	20000d26 	beq	r4,zero,41f88 <___vfprintf_internal_r+0x14a4>
   41f54:	d9003717 	ldw	r4,220(sp)
   41f58:	d9403417 	ldw	r5,208(sp)
   41f5c:	1907883a 	add	r3,r3,r4
   41f60:	d9001f17 	ldw	r4,124(sp)
   41f64:	41400015 	stw	r5,0(r8)
   41f68:	d9403717 	ldw	r5,220(sp)
   41f6c:	21000044 	addi	r4,r4,1
   41f70:	d8c02015 	stw	r3,128(sp)
   41f74:	41400115 	stw	r5,4(r8)
   41f78:	d9001f15 	stw	r4,124(sp)
   41f7c:	014001c4 	movi	r5,7
   41f80:	2901e816 	blt	r5,r4,42724 <___vfprintf_internal_r+0x1c40>
   41f84:	42000204 	addi	r8,r8,8
   41f88:	d9003317 	ldw	r4,204(sp)
   41f8c:	8121883a 	add	r16,r16,r4
   41f90:	2085c83a 	sub	r2,r4,r2
   41f94:	8461c83a 	sub	r16,r16,r17
   41f98:	1400010e 	bge	r2,r16,41fa0 <___vfprintf_internal_r+0x14bc>
   41f9c:	1021883a 	mov	r16,r2
   41fa0:	04000a0e 	bge	zero,r16,41fcc <___vfprintf_internal_r+0x14e8>
   41fa4:	d9001f17 	ldw	r4,124(sp)
   41fa8:	1c07883a 	add	r3,r3,r16
   41fac:	44400015 	stw	r17,0(r8)
   41fb0:	21000044 	addi	r4,r4,1
   41fb4:	44000115 	stw	r16,4(r8)
   41fb8:	d8c02015 	stw	r3,128(sp)
   41fbc:	d9001f15 	stw	r4,124(sp)
   41fc0:	014001c4 	movi	r5,7
   41fc4:	2901fb16 	blt	r5,r4,427b4 <___vfprintf_internal_r+0x1cd0>
   41fc8:	42000204 	addi	r8,r8,8
   41fcc:	8001f716 	blt	r16,zero,427ac <___vfprintf_internal_r+0x1cc8>
   41fd0:	1421c83a 	sub	r16,r2,r16
   41fd4:	043d380e 	bge	zero,r16,414b8 <__alt_data_end+0xfffcf4b8>
   41fd8:	04400404 	movi	r17,16
   41fdc:	d8801f17 	ldw	r2,124(sp)
   41fe0:	8c3efb0e 	bge	r17,r16,41bd0 <__alt_data_end+0xfffcfbd0>
   41fe4:	01400174 	movhi	r5,5
   41fe8:	295bd584 	addi	r5,r5,28502
   41fec:	d9402b15 	stw	r5,172(sp)
   41ff0:	058001c4 	movi	r22,7
   41ff4:	dcc02c17 	ldw	r19,176(sp)
   41ff8:	00000306 	br	42008 <___vfprintf_internal_r+0x1524>
   41ffc:	42000204 	addi	r8,r8,8
   42000:	843ffc04 	addi	r16,r16,-16
   42004:	8c3ef50e 	bge	r17,r16,41bdc <__alt_data_end+0xfffcfbdc>
   42008:	18c00404 	addi	r3,r3,16
   4200c:	10800044 	addi	r2,r2,1
   42010:	45000015 	stw	r20,0(r8)
   42014:	44400115 	stw	r17,4(r8)
   42018:	d8c02015 	stw	r3,128(sp)
   4201c:	d8801f15 	stw	r2,124(sp)
   42020:	b0bff60e 	bge	r22,r2,41ffc <__alt_data_end+0xfffcfffc>
   42024:	d9801e04 	addi	r6,sp,120
   42028:	b80b883a 	mov	r5,r23
   4202c:	9809883a 	mov	r4,r19
   42030:	004e8780 	call	4e878 <__sprint_r>
   42034:	103bad1e 	bne	r2,zero,40eec <__alt_data_end+0xfffceeec>
   42038:	d8c02017 	ldw	r3,128(sp)
   4203c:	d8801f17 	ldw	r2,124(sp)
   42040:	da000404 	addi	r8,sp,16
   42044:	003fee06 	br	42000 <__alt_data_end+0xfffd0000>
   42048:	9088703a 	and	r4,r18,r2
   4204c:	203eab1e 	bne	r4,zero,41afc <__alt_data_end+0xfffcfafc>
   42050:	dc401f17 	ldw	r17,124(sp)
   42054:	40800115 	stw	r2,4(r8)
   42058:	44000015 	stw	r16,0(r8)
   4205c:	8c400044 	addi	r17,r17,1
   42060:	d8c02015 	stw	r3,128(sp)
   42064:	dc401f15 	stw	r17,124(sp)
   42068:	008001c4 	movi	r2,7
   4206c:	14400e16 	blt	r2,r17,420a8 <___vfprintf_internal_r+0x15c4>
   42070:	45800204 	addi	r22,r8,8
   42074:	003eca06 	br	41ba0 <__alt_data_end+0xfffcfba0>
   42078:	01000174 	movhi	r4,5
   4207c:	211bd584 	addi	r4,r4,28502
   42080:	d9002b15 	stw	r4,172(sp)
   42084:	d8802b17 	ldw	r2,172(sp)
   42088:	1c07883a 	add	r3,r3,r16
   4208c:	8c400044 	addi	r17,r17,1
   42090:	b0800015 	stw	r2,0(r22)
   42094:	b4000115 	stw	r16,4(r22)
   42098:	d8c02015 	stw	r3,128(sp)
   4209c:	dc401f15 	stw	r17,124(sp)
   420a0:	008001c4 	movi	r2,7
   420a4:	147ebd0e 	bge	r2,r17,41b9c <__alt_data_end+0xfffcfb9c>
   420a8:	d9002c17 	ldw	r4,176(sp)
   420ac:	d9801e04 	addi	r6,sp,120
   420b0:	b80b883a 	mov	r5,r23
   420b4:	004e8780 	call	4e878 <__sprint_r>
   420b8:	103b8c1e 	bne	r2,zero,40eec <__alt_data_end+0xfffceeec>
   420bc:	d8c02017 	ldw	r3,128(sp)
   420c0:	dc401f17 	ldw	r17,124(sp)
   420c4:	dd800404 	addi	r22,sp,16
   420c8:	003eb506 	br	41ba0 <__alt_data_end+0xfffcfba0>
   420cc:	d9002c17 	ldw	r4,176(sp)
   420d0:	d9801e04 	addi	r6,sp,120
   420d4:	b80b883a 	mov	r5,r23
   420d8:	004e8780 	call	4e878 <__sprint_r>
   420dc:	103b831e 	bne	r2,zero,40eec <__alt_data_end+0xfffceeec>
   420e0:	d8c02017 	ldw	r3,128(sp)
   420e4:	dc401f17 	ldw	r17,124(sp)
   420e8:	da000404 	addi	r8,sp,16
   420ec:	003e8d06 	br	41b24 <__alt_data_end+0xfffcfb24>
   420f0:	d9002c17 	ldw	r4,176(sp)
   420f4:	d9801e04 	addi	r6,sp,120
   420f8:	b80b883a 	mov	r5,r23
   420fc:	004e8780 	call	4e878 <__sprint_r>
   42100:	103b7a1e 	bne	r2,zero,40eec <__alt_data_end+0xfffceeec>
   42104:	d8c02017 	ldw	r3,128(sp)
   42108:	dc401f17 	ldw	r17,124(sp)
   4210c:	dd800404 	addi	r22,sp,16
   42110:	003e8f06 	br	41b50 <__alt_data_end+0xfffcfb50>
   42114:	0027883a 	mov	r19,zero
   42118:	003f4a06 	br	41e44 <__alt_data_end+0xfffcfe44>
   4211c:	d9002c17 	ldw	r4,176(sp)
   42120:	d9801e04 	addi	r6,sp,120
   42124:	b80b883a 	mov	r5,r23
   42128:	004e8780 	call	4e878 <__sprint_r>
   4212c:	103b6f1e 	bne	r2,zero,40eec <__alt_data_end+0xfffceeec>
   42130:	d8c02017 	ldw	r3,128(sp)
   42134:	da000404 	addi	r8,sp,16
   42138:	003c9d06 	br	413b0 <__alt_data_end+0xfffcf3b0>
   4213c:	04e7c83a 	sub	r19,zero,r19
   42140:	9804c03a 	cmpne	r2,r19,zero
   42144:	05adc83a 	sub	r22,zero,r22
   42148:	b0adc83a 	sub	r22,r22,r2
   4214c:	d8802917 	ldw	r2,164(sp)
   42150:	07000b44 	movi	fp,45
   42154:	df002785 	stb	fp,158(sp)
   42158:	10017b16 	blt	r2,zero,42748 <___vfprintf_internal_r+0x1c64>
   4215c:	00bfdfc4 	movi	r2,-129
   42160:	90a4703a 	and	r18,r18,r2
   42164:	003bb106 	br	4102c <__alt_data_end+0xfffcf02c>
   42168:	d9003617 	ldw	r4,216(sp)
   4216c:	d9403817 	ldw	r5,224(sp)
   42170:	da003d15 	stw	r8,244(sp)
   42174:	0049c540 	call	49c54 <__fpclassifyd>
   42178:	da003d17 	ldw	r8,244(sp)
   4217c:	1000f026 	beq	r2,zero,42540 <___vfprintf_internal_r+0x1a5c>
   42180:	d9002917 	ldw	r4,164(sp)
   42184:	05bff7c4 	movi	r22,-33
   42188:	00bfffc4 	movi	r2,-1
   4218c:	8dac703a 	and	r22,r17,r22
   42190:	20820026 	beq	r4,r2,42994 <___vfprintf_internal_r+0x1eb0>
   42194:	008011c4 	movi	r2,71
   42198:	b081f726 	beq	r22,r2,42978 <___vfprintf_internal_r+0x1e94>
   4219c:	d9003817 	ldw	r4,224(sp)
   421a0:	90c04014 	ori	r3,r18,256
   421a4:	d8c02b15 	stw	r3,172(sp)
   421a8:	20021516 	blt	r4,zero,42a00 <___vfprintf_internal_r+0x1f1c>
   421ac:	dcc03817 	ldw	r19,224(sp)
   421b0:	d8002a05 	stb	zero,168(sp)
   421b4:	00801984 	movi	r2,102
   421b8:	8881f926 	beq	r17,r2,429a0 <___vfprintf_internal_r+0x1ebc>
   421bc:	00801184 	movi	r2,70
   421c0:	88821c26 	beq	r17,r2,42a34 <___vfprintf_internal_r+0x1f50>
   421c4:	00801144 	movi	r2,69
   421c8:	b081ef26 	beq	r22,r2,42988 <___vfprintf_internal_r+0x1ea4>
   421cc:	d8c02917 	ldw	r3,164(sp)
   421d0:	d8802104 	addi	r2,sp,132
   421d4:	d8800315 	stw	r2,12(sp)
   421d8:	d9403617 	ldw	r5,216(sp)
   421dc:	d8802504 	addi	r2,sp,148
   421e0:	d9002c17 	ldw	r4,176(sp)
   421e4:	d8800215 	stw	r2,8(sp)
   421e8:	d8802604 	addi	r2,sp,152
   421ec:	d8c00015 	stw	r3,0(sp)
   421f0:	d8800115 	stw	r2,4(sp)
   421f4:	01c00084 	movi	r7,2
   421f8:	980d883a 	mov	r6,r19
   421fc:	d8c03c15 	stw	r3,240(sp)
   42200:	da003d15 	stw	r8,244(sp)
   42204:	00449940 	call	44994 <_dtoa_r>
   42208:	1021883a 	mov	r16,r2
   4220c:	008019c4 	movi	r2,103
   42210:	d8c03c17 	ldw	r3,240(sp)
   42214:	da003d17 	ldw	r8,244(sp)
   42218:	88817126 	beq	r17,r2,427e0 <___vfprintf_internal_r+0x1cfc>
   4221c:	008011c4 	movi	r2,71
   42220:	88829226 	beq	r17,r2,42c6c <___vfprintf_internal_r+0x2188>
   42224:	80f9883a 	add	fp,r16,r3
   42228:	d9003617 	ldw	r4,216(sp)
   4222c:	000d883a 	mov	r6,zero
   42230:	000f883a 	mov	r7,zero
   42234:	980b883a 	mov	r5,r19
   42238:	da003d15 	stw	r8,244(sp)
   4223c:	00548280 	call	54828 <__eqdf2>
   42240:	da003d17 	ldw	r8,244(sp)
   42244:	10018d26 	beq	r2,zero,4287c <___vfprintf_internal_r+0x1d98>
   42248:	d8802117 	ldw	r2,132(sp)
   4224c:	1700062e 	bgeu	r2,fp,42268 <___vfprintf_internal_r+0x1784>
   42250:	01000c04 	movi	r4,48
   42254:	10c00044 	addi	r3,r2,1
   42258:	d8c02115 	stw	r3,132(sp)
   4225c:	11000005 	stb	r4,0(r2)
   42260:	d8802117 	ldw	r2,132(sp)
   42264:	173ffb36 	bltu	r2,fp,42254 <__alt_data_end+0xfffd0254>
   42268:	1405c83a 	sub	r2,r2,r16
   4226c:	d8803315 	stw	r2,204(sp)
   42270:	008011c4 	movi	r2,71
   42274:	b0817626 	beq	r22,r2,42850 <___vfprintf_internal_r+0x1d6c>
   42278:	00801944 	movi	r2,101
   4227c:	1442810e 	bge	r2,r17,42c84 <___vfprintf_internal_r+0x21a0>
   42280:	d8c02617 	ldw	r3,152(sp)
   42284:	00801984 	movi	r2,102
   42288:	d8c03215 	stw	r3,200(sp)
   4228c:	8881fe26 	beq	r17,r2,42a88 <___vfprintf_internal_r+0x1fa4>
   42290:	d8c03217 	ldw	r3,200(sp)
   42294:	d9003317 	ldw	r4,204(sp)
   42298:	1901dd16 	blt	r3,r4,42a10 <___vfprintf_internal_r+0x1f2c>
   4229c:	9480004c 	andi	r18,r18,1
   422a0:	90022b1e 	bne	r18,zero,42b50 <___vfprintf_internal_r+0x206c>
   422a4:	1805883a 	mov	r2,r3
   422a8:	18028016 	blt	r3,zero,42cac <___vfprintf_internal_r+0x21c8>
   422ac:	d8c03217 	ldw	r3,200(sp)
   422b0:	044019c4 	movi	r17,103
   422b4:	d8c02e15 	stw	r3,184(sp)
   422b8:	df002a07 	ldb	fp,168(sp)
   422bc:	e001531e 	bne	fp,zero,4280c <___vfprintf_internal_r+0x1d28>
   422c0:	df002783 	ldbu	fp,158(sp)
   422c4:	d8802a15 	stw	r2,168(sp)
   422c8:	dc802b17 	ldw	r18,172(sp)
   422cc:	d8002915 	stw	zero,164(sp)
   422d0:	003bd106 	br	41218 <__alt_data_end+0xfffcf218>
   422d4:	d8802d17 	ldw	r2,180(sp)
   422d8:	d8c02d17 	ldw	r3,180(sp)
   422dc:	d9002d17 	ldw	r4,180(sp)
   422e0:	10800017 	ldw	r2,0(r2)
   422e4:	18c00117 	ldw	r3,4(r3)
   422e8:	21000204 	addi	r4,r4,8
   422ec:	d8803615 	stw	r2,216(sp)
   422f0:	d8c03815 	stw	r3,224(sp)
   422f4:	d9002d15 	stw	r4,180(sp)
   422f8:	003b7506 	br	410d0 <__alt_data_end+0xfffcf0d0>
   422fc:	ac400007 	ldb	r17,0(r21)
   42300:	003a5906 	br	40c68 <__alt_data_end+0xfffcec68>
   42304:	9080100c 	andi	r2,r18,64
   42308:	1000a826 	beq	r2,zero,425ac <___vfprintf_internal_r+0x1ac8>
   4230c:	d9002d17 	ldw	r4,180(sp)
   42310:	002d883a 	mov	r22,zero
   42314:	24c0000b 	ldhu	r19,0(r4)
   42318:	21000104 	addi	r4,r4,4
   4231c:	d9002d15 	stw	r4,180(sp)
   42320:	003ccb06 	br	41650 <__alt_data_end+0xfffcf650>
   42324:	d8c02d17 	ldw	r3,180(sp)
   42328:	d9002917 	ldw	r4,164(sp)
   4232c:	002d883a 	mov	r22,zero
   42330:	18800104 	addi	r2,r3,4
   42334:	1cc00017 	ldw	r19,0(r3)
   42338:	203ebb0e 	bge	r4,zero,41e28 <__alt_data_end+0xfffcfe28>
   4233c:	003ef106 	br	41f04 <__alt_data_end+0xfffcff04>
   42340:	9080040c 	andi	r2,r18,16
   42344:	1000921e 	bne	r2,zero,42590 <___vfprintf_internal_r+0x1aac>
   42348:	9480100c 	andi	r18,r18,64
   4234c:	90013926 	beq	r18,zero,42834 <___vfprintf_internal_r+0x1d50>
   42350:	d9002d17 	ldw	r4,180(sp)
   42354:	d9402f17 	ldw	r5,188(sp)
   42358:	20800017 	ldw	r2,0(r4)
   4235c:	21000104 	addi	r4,r4,4
   42360:	d9002d15 	stw	r4,180(sp)
   42364:	1140000d 	sth	r5,0(r2)
   42368:	003a1606 	br	40bc4 <__alt_data_end+0xfffcebc4>
   4236c:	9080100c 	andi	r2,r18,64
   42370:	10008026 	beq	r2,zero,42574 <___vfprintf_internal_r+0x1a90>
   42374:	d8c02d17 	ldw	r3,180(sp)
   42378:	1cc0000f 	ldh	r19,0(r3)
   4237c:	18c00104 	addi	r3,r3,4
   42380:	d8c02d15 	stw	r3,180(sp)
   42384:	982dd7fa 	srai	r22,r19,31
   42388:	b005883a 	mov	r2,r22
   4238c:	003b1f06 	br	4100c <__alt_data_end+0xfffcf00c>
   42390:	9080100c 	andi	r2,r18,64
   42394:	d8002785 	stb	zero,158(sp)
   42398:	10008a1e 	bne	r2,zero,425c4 <___vfprintf_internal_r+0x1ae0>
   4239c:	d9402d17 	ldw	r5,180(sp)
   423a0:	d8c02917 	ldw	r3,164(sp)
   423a4:	002d883a 	mov	r22,zero
   423a8:	28800104 	addi	r2,r5,4
   423ac:	2cc00017 	ldw	r19,0(r5)
   423b0:	183e4b0e 	bge	r3,zero,41ce0 <__alt_data_end+0xfffcfce0>
   423b4:	9d86b03a 	or	r3,r19,r22
   423b8:	d8802d15 	stw	r2,180(sp)
   423bc:	183e4c1e 	bne	r3,zero,41cf0 <__alt_data_end+0xfffcfcf0>
   423c0:	0039883a 	mov	fp,zero
   423c4:	0005883a 	mov	r2,zero
   423c8:	003d4006 	br	418cc <__alt_data_end+0xfffcf8cc>
   423cc:	01400174 	movhi	r5,5
   423d0:	295bd584 	addi	r5,r5,28502
   423d4:	d9402b15 	stw	r5,172(sp)
   423d8:	d9402b17 	ldw	r5,172(sp)
   423dc:	1c47883a 	add	r3,r3,r17
   423e0:	10800044 	addi	r2,r2,1
   423e4:	41400015 	stw	r5,0(r8)
   423e8:	44400115 	stw	r17,4(r8)
   423ec:	d8c02015 	stw	r3,128(sp)
   423f0:	d8801f15 	stw	r2,124(sp)
   423f4:	010001c4 	movi	r4,7
   423f8:	20bec816 	blt	r4,r2,41f1c <__alt_data_end+0xfffcff1c>
   423fc:	42000204 	addi	r8,r8,8
   42400:	003ecd06 	br	41f38 <__alt_data_end+0xfffcff38>
   42404:	d9002917 	ldw	r4,164(sp)
   42408:	d8002785 	stb	zero,158(sp)
   4240c:	203d2d16 	blt	r4,zero,418c4 <__alt_data_end+0xfffcf8c4>
   42410:	00bfdfc4 	movi	r2,-129
   42414:	90a4703a 	and	r18,r18,r2
   42418:	003a9106 	br	40e60 <__alt_data_end+0xfffcee60>
   4241c:	01000174 	movhi	r4,5
   42420:	211bd584 	addi	r4,r4,28502
   42424:	d9002b15 	stw	r4,172(sp)
   42428:	003c0c06 	br	4145c <__alt_data_end+0xfffcf45c>
   4242c:	d9002c17 	ldw	r4,176(sp)
   42430:	d9801e04 	addi	r6,sp,120
   42434:	b80b883a 	mov	r5,r23
   42438:	004e8780 	call	4e878 <__sprint_r>
   4243c:	103aab1e 	bne	r2,zero,40eec <__alt_data_end+0xfffceeec>
   42440:	d8c02017 	ldw	r3,128(sp)
   42444:	da000404 	addi	r8,sp,16
   42448:	003d4106 	br	41950 <__alt_data_end+0xfffcf950>
   4244c:	d8801f17 	ldw	r2,124(sp)
   42450:	01400174 	movhi	r5,5
   42454:	01000044 	movi	r4,1
   42458:	18c00044 	addi	r3,r3,1
   4245c:	10800044 	addi	r2,r2,1
   42460:	295bd504 	addi	r5,r5,28500
   42464:	41000115 	stw	r4,4(r8)
   42468:	41400015 	stw	r5,0(r8)
   4246c:	d8c02015 	stw	r3,128(sp)
   42470:	d8801f15 	stw	r2,124(sp)
   42474:	010001c4 	movi	r4,7
   42478:	20805c16 	blt	r4,r2,425ec <___vfprintf_internal_r+0x1b08>
   4247c:	42000204 	addi	r8,r8,8
   42480:	8800041e 	bne	r17,zero,42494 <___vfprintf_internal_r+0x19b0>
   42484:	d8803317 	ldw	r2,204(sp)
   42488:	1000021e 	bne	r2,zero,42494 <___vfprintf_internal_r+0x19b0>
   4248c:	9080004c 	andi	r2,r18,1
   42490:	103c0926 	beq	r2,zero,414b8 <__alt_data_end+0xfffcf4b8>
   42494:	d9003717 	ldw	r4,220(sp)
   42498:	d8801f17 	ldw	r2,124(sp)
   4249c:	d9403417 	ldw	r5,208(sp)
   424a0:	20c7883a 	add	r3,r4,r3
   424a4:	10800044 	addi	r2,r2,1
   424a8:	41000115 	stw	r4,4(r8)
   424ac:	41400015 	stw	r5,0(r8)
   424b0:	d8c02015 	stw	r3,128(sp)
   424b4:	d8801f15 	stw	r2,124(sp)
   424b8:	010001c4 	movi	r4,7
   424bc:	20812116 	blt	r4,r2,42944 <___vfprintf_internal_r+0x1e60>
   424c0:	42000204 	addi	r8,r8,8
   424c4:	0463c83a 	sub	r17,zero,r17
   424c8:	0440730e 	bge	zero,r17,42698 <___vfprintf_internal_r+0x1bb4>
   424cc:	05800404 	movi	r22,16
   424d0:	b440860e 	bge	r22,r17,426ec <___vfprintf_internal_r+0x1c08>
   424d4:	01400174 	movhi	r5,5
   424d8:	295bd584 	addi	r5,r5,28502
   424dc:	d9402b15 	stw	r5,172(sp)
   424e0:	070001c4 	movi	fp,7
   424e4:	dcc02c17 	ldw	r19,176(sp)
   424e8:	00000306 	br	424f8 <___vfprintf_internal_r+0x1a14>
   424ec:	42000204 	addi	r8,r8,8
   424f0:	8c7ffc04 	addi	r17,r17,-16
   424f4:	b440800e 	bge	r22,r17,426f8 <___vfprintf_internal_r+0x1c14>
   424f8:	18c00404 	addi	r3,r3,16
   424fc:	10800044 	addi	r2,r2,1
   42500:	45000015 	stw	r20,0(r8)
   42504:	45800115 	stw	r22,4(r8)
   42508:	d8c02015 	stw	r3,128(sp)
   4250c:	d8801f15 	stw	r2,124(sp)
   42510:	e0bff60e 	bge	fp,r2,424ec <__alt_data_end+0xfffd04ec>
   42514:	d9801e04 	addi	r6,sp,120
   42518:	b80b883a 	mov	r5,r23
   4251c:	9809883a 	mov	r4,r19
   42520:	004e8780 	call	4e878 <__sprint_r>
   42524:	103a711e 	bne	r2,zero,40eec <__alt_data_end+0xfffceeec>
   42528:	d8c02017 	ldw	r3,128(sp)
   4252c:	d8801f17 	ldw	r2,124(sp)
   42530:	da000404 	addi	r8,sp,16
   42534:	003fee06 	br	424f0 <__alt_data_end+0xfffd04f0>
   42538:	00bfffc4 	movi	r2,-1
   4253c:	003a6f06 	br	40efc <__alt_data_end+0xfffceefc>
   42540:	008011c4 	movi	r2,71
   42544:	1440b816 	blt	r2,r17,42828 <___vfprintf_internal_r+0x1d44>
   42548:	04000174 	movhi	r16,5
   4254c:	841bc704 	addi	r16,r16,28444
   42550:	00c000c4 	movi	r3,3
   42554:	00bfdfc4 	movi	r2,-129
   42558:	d8c02a15 	stw	r3,168(sp)
   4255c:	90a4703a 	and	r18,r18,r2
   42560:	df002783 	ldbu	fp,158(sp)
   42564:	d8c02e15 	stw	r3,184(sp)
   42568:	d8002915 	stw	zero,164(sp)
   4256c:	d8003215 	stw	zero,200(sp)
   42570:	003b2906 	br	41218 <__alt_data_end+0xfffcf218>
   42574:	d9002d17 	ldw	r4,180(sp)
   42578:	24c00017 	ldw	r19,0(r4)
   4257c:	21000104 	addi	r4,r4,4
   42580:	d9002d15 	stw	r4,180(sp)
   42584:	982dd7fa 	srai	r22,r19,31
   42588:	b005883a 	mov	r2,r22
   4258c:	003a9f06 	br	4100c <__alt_data_end+0xfffcf00c>
   42590:	d9402d17 	ldw	r5,180(sp)
   42594:	d8c02f17 	ldw	r3,188(sp)
   42598:	28800017 	ldw	r2,0(r5)
   4259c:	29400104 	addi	r5,r5,4
   425a0:	d9402d15 	stw	r5,180(sp)
   425a4:	10c00015 	stw	r3,0(r2)
   425a8:	00398606 	br	40bc4 <__alt_data_end+0xfffcebc4>
   425ac:	d9402d17 	ldw	r5,180(sp)
   425b0:	002d883a 	mov	r22,zero
   425b4:	2cc00017 	ldw	r19,0(r5)
   425b8:	29400104 	addi	r5,r5,4
   425bc:	d9402d15 	stw	r5,180(sp)
   425c0:	003c2306 	br	41650 <__alt_data_end+0xfffcf650>
   425c4:	d8c02d17 	ldw	r3,180(sp)
   425c8:	d9002917 	ldw	r4,164(sp)
   425cc:	002d883a 	mov	r22,zero
   425d0:	18800104 	addi	r2,r3,4
   425d4:	1cc0000b 	ldhu	r19,0(r3)
   425d8:	203dc10e 	bge	r4,zero,41ce0 <__alt_data_end+0xfffcfce0>
   425dc:	003f7506 	br	423b4 <__alt_data_end+0xfffd03b4>
   425e0:	04000174 	movhi	r16,5
   425e4:	841bc504 	addi	r16,r16,28436
   425e8:	003acc06 	br	4111c <__alt_data_end+0xfffcf11c>
   425ec:	d9002c17 	ldw	r4,176(sp)
   425f0:	d9801e04 	addi	r6,sp,120
   425f4:	b80b883a 	mov	r5,r23
   425f8:	004e8780 	call	4e878 <__sprint_r>
   425fc:	103a3b1e 	bne	r2,zero,40eec <__alt_data_end+0xfffceeec>
   42600:	dc402617 	ldw	r17,152(sp)
   42604:	d8c02017 	ldw	r3,128(sp)
   42608:	da000404 	addi	r8,sp,16
   4260c:	003f9c06 	br	42480 <__alt_data_end+0xfffd0480>
   42610:	ac400043 	ldbu	r17,1(r21)
   42614:	94800814 	ori	r18,r18,32
   42618:	ad400044 	addi	r21,r21,1
   4261c:	8c403fcc 	andi	r17,r17,255
   42620:	8c40201c 	xori	r17,r17,128
   42624:	8c7fe004 	addi	r17,r17,-128
   42628:	00398f06 	br	40c68 <__alt_data_end+0xfffcec68>
   4262c:	d8c02d15 	stw	r3,180(sp)
   42630:	0039883a 	mov	fp,zero
   42634:	003e3506 	br	41f0c <__alt_data_end+0xfffcff0c>
   42638:	d9002c17 	ldw	r4,176(sp)
   4263c:	d9801e04 	addi	r6,sp,120
   42640:	b80b883a 	mov	r5,r23
   42644:	004e8780 	call	4e878 <__sprint_r>
   42648:	103a281e 	bne	r2,zero,40eec <__alt_data_end+0xfffceeec>
   4264c:	d8c02017 	ldw	r3,128(sp)
   42650:	da000404 	addi	r8,sp,16
   42654:	003cd006 	br	41998 <__alt_data_end+0xfffcf998>
   42658:	8009883a 	mov	r4,r16
   4265c:	da003d15 	stw	r8,244(sp)
   42660:	0040a4c0 	call	40a4c <strlen>
   42664:	d8802e15 	stw	r2,184(sp)
   42668:	da003d17 	ldw	r8,244(sp)
   4266c:	103c340e 	bge	r2,zero,41740 <__alt_data_end+0xfffcf740>
   42670:	0005883a 	mov	r2,zero
   42674:	003c3206 	br	41740 <__alt_data_end+0xfffcf740>
   42678:	d9002c17 	ldw	r4,176(sp)
   4267c:	d9801e04 	addi	r6,sp,120
   42680:	b80b883a 	mov	r5,r23
   42684:	004e8780 	call	4e878 <__sprint_r>
   42688:	103a181e 	bne	r2,zero,40eec <__alt_data_end+0xfffceeec>
   4268c:	d8c02017 	ldw	r3,128(sp)
   42690:	d8801f17 	ldw	r2,124(sp)
   42694:	da000404 	addi	r8,sp,16
   42698:	d9403317 	ldw	r5,204(sp)
   4269c:	10800044 	addi	r2,r2,1
   426a0:	44000015 	stw	r16,0(r8)
   426a4:	28c7883a 	add	r3,r5,r3
   426a8:	003b7d06 	br	414a0 <__alt_data_end+0xfffcf4a0>
   426ac:	01000174 	movhi	r4,5
   426b0:	211bd984 	addi	r4,r4,28518
   426b4:	d9003515 	stw	r4,212(sp)
   426b8:	003b1406 	br	4130c <__alt_data_end+0xfffcf30c>
   426bc:	013fffc4 	movi	r4,-1
   426c0:	003a3506 	br	40f98 <__alt_data_end+0xfffcef98>
   426c4:	0023883a 	mov	r17,zero
   426c8:	003d9d06 	br	41d40 <__alt_data_end+0xfffcfd40>
   426cc:	d9002c17 	ldw	r4,176(sp)
   426d0:	d9801e04 	addi	r6,sp,120
   426d4:	b80b883a 	mov	r5,r23
   426d8:	004e8780 	call	4e878 <__sprint_r>
   426dc:	103a031e 	bne	r2,zero,40eec <__alt_data_end+0xfffceeec>
   426e0:	d8c02017 	ldw	r3,128(sp)
   426e4:	da000404 	addi	r8,sp,16
   426e8:	003d9406 	br	41d3c <__alt_data_end+0xfffcfd3c>
   426ec:	01000174 	movhi	r4,5
   426f0:	211bd584 	addi	r4,r4,28502
   426f4:	d9002b15 	stw	r4,172(sp)
   426f8:	d9002b17 	ldw	r4,172(sp)
   426fc:	1c47883a 	add	r3,r3,r17
   42700:	10800044 	addi	r2,r2,1
   42704:	41000015 	stw	r4,0(r8)
   42708:	44400115 	stw	r17,4(r8)
   4270c:	d8c02015 	stw	r3,128(sp)
   42710:	d8801f15 	stw	r2,124(sp)
   42714:	010001c4 	movi	r4,7
   42718:	20bfd716 	blt	r4,r2,42678 <__alt_data_end+0xfffd0678>
   4271c:	42000204 	addi	r8,r8,8
   42720:	003fdd06 	br	42698 <__alt_data_end+0xfffd0698>
   42724:	d9002c17 	ldw	r4,176(sp)
   42728:	d9801e04 	addi	r6,sp,120
   4272c:	b80b883a 	mov	r5,r23
   42730:	004e8780 	call	4e878 <__sprint_r>
   42734:	1039ed1e 	bne	r2,zero,40eec <__alt_data_end+0xfffceeec>
   42738:	d8802617 	ldw	r2,152(sp)
   4273c:	d8c02017 	ldw	r3,128(sp)
   42740:	da000404 	addi	r8,sp,16
   42744:	003e1006 	br	41f88 <__alt_data_end+0xfffcff88>
   42748:	00800044 	movi	r2,1
   4274c:	10803fcc 	andi	r2,r2,255
   42750:	00c00044 	movi	r3,1
   42754:	10fa3526 	beq	r2,r3,4102c <__alt_data_end+0xfffcf02c>
   42758:	00c00084 	movi	r3,2
   4275c:	10fbcb26 	beq	r2,r3,4168c <__alt_data_end+0xfffcf68c>
   42760:	003a8f06 	br	411a0 <__alt_data_end+0xfffcf1a0>
   42764:	01000174 	movhi	r4,5
   42768:	211bd984 	addi	r4,r4,28518
   4276c:	d9003515 	stw	r4,212(sp)
   42770:	003b7606 	br	4154c <__alt_data_end+0xfffcf54c>
   42774:	d8802917 	ldw	r2,164(sp)
   42778:	00c00184 	movi	r3,6
   4277c:	1880012e 	bgeu	r3,r2,42784 <___vfprintf_internal_r+0x1ca0>
   42780:	1805883a 	mov	r2,r3
   42784:	d8802e15 	stw	r2,184(sp)
   42788:	1000ef16 	blt	r2,zero,42b48 <___vfprintf_internal_r+0x2064>
   4278c:	04000174 	movhi	r16,5
   42790:	d8802a15 	stw	r2,168(sp)
   42794:	dcc02d15 	stw	r19,180(sp)
   42798:	d8002915 	stw	zero,164(sp)
   4279c:	d8003215 	stw	zero,200(sp)
   427a0:	841bd304 	addi	r16,r16,28492
   427a4:	0039883a 	mov	fp,zero
   427a8:	003aa206 	br	41234 <__alt_data_end+0xfffcf234>
   427ac:	0021883a 	mov	r16,zero
   427b0:	003e0706 	br	41fd0 <__alt_data_end+0xfffcffd0>
   427b4:	d9002c17 	ldw	r4,176(sp)
   427b8:	d9801e04 	addi	r6,sp,120
   427bc:	b80b883a 	mov	r5,r23
   427c0:	004e8780 	call	4e878 <__sprint_r>
   427c4:	1039c91e 	bne	r2,zero,40eec <__alt_data_end+0xfffceeec>
   427c8:	d8802617 	ldw	r2,152(sp)
   427cc:	d9403317 	ldw	r5,204(sp)
   427d0:	d8c02017 	ldw	r3,128(sp)
   427d4:	da000404 	addi	r8,sp,16
   427d8:	2885c83a 	sub	r2,r5,r2
   427dc:	003dfb06 	br	41fcc <__alt_data_end+0xfffcffcc>
   427e0:	9080004c 	andi	r2,r18,1
   427e4:	103e8f1e 	bne	r2,zero,42224 <__alt_data_end+0xfffd0224>
   427e8:	d8802117 	ldw	r2,132(sp)
   427ec:	003e9e06 	br	42268 <__alt_data_end+0xfffd0268>
   427f0:	1025883a 	mov	r18,r2
   427f4:	0039883a 	mov	fp,zero
   427f8:	00800084 	movi	r2,2
   427fc:	003fd306 	br	4274c <__alt_data_end+0xfffd074c>
   42800:	07000b44 	movi	fp,45
   42804:	df002785 	stb	fp,158(sp)
   42808:	003a4006 	br	4110c <__alt_data_end+0xfffcf10c>
   4280c:	00c00b44 	movi	r3,45
   42810:	d8c02785 	stb	r3,158(sp)
   42814:	d8802a15 	stw	r2,168(sp)
   42818:	dc802b17 	ldw	r18,172(sp)
   4281c:	d8002915 	stw	zero,164(sp)
   42820:	07000b44 	movi	fp,45
   42824:	003a8006 	br	41228 <__alt_data_end+0xfffcf228>
   42828:	04000174 	movhi	r16,5
   4282c:	841bc804 	addi	r16,r16,28448
   42830:	003f4706 	br	42550 <__alt_data_end+0xfffd0550>
   42834:	d8c02d17 	ldw	r3,180(sp)
   42838:	d9002f17 	ldw	r4,188(sp)
   4283c:	18800017 	ldw	r2,0(r3)
   42840:	18c00104 	addi	r3,r3,4
   42844:	d8c02d15 	stw	r3,180(sp)
   42848:	11000015 	stw	r4,0(r2)
   4284c:	0038dd06 	br	40bc4 <__alt_data_end+0xfffcebc4>
   42850:	dd802617 	ldw	r22,152(sp)
   42854:	00bfff44 	movi	r2,-3
   42858:	b0801c16 	blt	r22,r2,428cc <___vfprintf_internal_r+0x1de8>
   4285c:	d9402917 	ldw	r5,164(sp)
   42860:	2d801a16 	blt	r5,r22,428cc <___vfprintf_internal_r+0x1de8>
   42864:	dd803215 	stw	r22,200(sp)
   42868:	003e8906 	br	42290 <__alt_data_end+0xfffd0290>
   4286c:	01000174 	movhi	r4,5
   42870:	211bd584 	addi	r4,r4,28502
   42874:	d9002b15 	stw	r4,172(sp)
   42878:	003c9106 	br	41ac0 <__alt_data_end+0xfffcfac0>
   4287c:	e005883a 	mov	r2,fp
   42880:	003e7906 	br	42268 <__alt_data_end+0xfffd0268>
   42884:	d9402917 	ldw	r5,164(sp)
   42888:	df002783 	ldbu	fp,158(sp)
   4288c:	dcc02d15 	stw	r19,180(sp)
   42890:	d9402a15 	stw	r5,168(sp)
   42894:	d9402e15 	stw	r5,184(sp)
   42898:	d8002915 	stw	zero,164(sp)
   4289c:	d8003215 	stw	zero,200(sp)
   428a0:	003a5d06 	br	41218 <__alt_data_end+0xfffcf218>
   428a4:	9080004c 	andi	r2,r18,1
   428a8:	0039883a 	mov	fp,zero
   428ac:	10000426 	beq	r2,zero,428c0 <___vfprintf_internal_r+0x1ddc>
   428b0:	00800c04 	movi	r2,48
   428b4:	dc001dc4 	addi	r16,sp,119
   428b8:	d8801dc5 	stb	r2,119(sp)
   428bc:	003b8006 	br	416c0 <__alt_data_end+0xfffcf6c0>
   428c0:	d8002e15 	stw	zero,184(sp)
   428c4:	dc001e04 	addi	r16,sp,120
   428c8:	003a4d06 	br	41200 <__alt_data_end+0xfffcf200>
   428cc:	8c7fff84 	addi	r17,r17,-2
   428d0:	b5bfffc4 	addi	r22,r22,-1
   428d4:	dd802615 	stw	r22,152(sp)
   428d8:	dc4022c5 	stb	r17,139(sp)
   428dc:	b000bf16 	blt	r22,zero,42bdc <___vfprintf_internal_r+0x20f8>
   428e0:	00800ac4 	movi	r2,43
   428e4:	d8802305 	stb	r2,140(sp)
   428e8:	00800244 	movi	r2,9
   428ec:	15807016 	blt	r2,r22,42ab0 <___vfprintf_internal_r+0x1fcc>
   428f0:	00800c04 	movi	r2,48
   428f4:	b5800c04 	addi	r22,r22,48
   428f8:	d8802345 	stb	r2,141(sp)
   428fc:	dd802385 	stb	r22,142(sp)
   42900:	d88023c4 	addi	r2,sp,143
   42904:	df0022c4 	addi	fp,sp,139
   42908:	d8c03317 	ldw	r3,204(sp)
   4290c:	1739c83a 	sub	fp,r2,fp
   42910:	d9003317 	ldw	r4,204(sp)
   42914:	e0c7883a 	add	r3,fp,r3
   42918:	df003a15 	stw	fp,232(sp)
   4291c:	d8c02e15 	stw	r3,184(sp)
   42920:	00800044 	movi	r2,1
   42924:	1100b30e 	bge	r2,r4,42bf4 <___vfprintf_internal_r+0x2110>
   42928:	d8c02e17 	ldw	r3,184(sp)
   4292c:	18c00044 	addi	r3,r3,1
   42930:	d8c02e15 	stw	r3,184(sp)
   42934:	1805883a 	mov	r2,r3
   42938:	1800ac16 	blt	r3,zero,42bec <___vfprintf_internal_r+0x2108>
   4293c:	d8003215 	stw	zero,200(sp)
   42940:	003e5d06 	br	422b8 <__alt_data_end+0xfffd02b8>
   42944:	d9002c17 	ldw	r4,176(sp)
   42948:	d9801e04 	addi	r6,sp,120
   4294c:	b80b883a 	mov	r5,r23
   42950:	004e8780 	call	4e878 <__sprint_r>
   42954:	1039651e 	bne	r2,zero,40eec <__alt_data_end+0xfffceeec>
   42958:	dc402617 	ldw	r17,152(sp)
   4295c:	d8c02017 	ldw	r3,128(sp)
   42960:	d8801f17 	ldw	r2,124(sp)
   42964:	da000404 	addi	r8,sp,16
   42968:	003ed606 	br	424c4 <__alt_data_end+0xfffd04c4>
   4296c:	582b883a 	mov	r21,r11
   42970:	d8002915 	stw	zero,164(sp)
   42974:	0038bd06 	br	40c6c <__alt_data_end+0xfffcec6c>
   42978:	d8802917 	ldw	r2,164(sp)
   4297c:	103e071e 	bne	r2,zero,4219c <__alt_data_end+0xfffd019c>
   42980:	dc002915 	stw	r16,164(sp)
   42984:	003e0506 	br	4219c <__alt_data_end+0xfffd019c>
   42988:	d9002917 	ldw	r4,164(sp)
   4298c:	20c00044 	addi	r3,r4,1
   42990:	003e0f06 	br	421d0 <__alt_data_end+0xfffd01d0>
   42994:	01400184 	movi	r5,6
   42998:	d9402915 	stw	r5,164(sp)
   4299c:	003dff06 	br	4219c <__alt_data_end+0xfffd019c>
   429a0:	d8802104 	addi	r2,sp,132
   429a4:	d8800315 	stw	r2,12(sp)
   429a8:	d8802504 	addi	r2,sp,148
   429ac:	d8800215 	stw	r2,8(sp)
   429b0:	d8802604 	addi	r2,sp,152
   429b4:	d8800115 	stw	r2,4(sp)
   429b8:	d8802917 	ldw	r2,164(sp)
   429bc:	d9403617 	ldw	r5,216(sp)
   429c0:	d9002c17 	ldw	r4,176(sp)
   429c4:	d8800015 	stw	r2,0(sp)
   429c8:	01c000c4 	movi	r7,3
   429cc:	980d883a 	mov	r6,r19
   429d0:	da003d15 	stw	r8,244(sp)
   429d4:	00449940 	call	44994 <_dtoa_r>
   429d8:	d8c02917 	ldw	r3,164(sp)
   429dc:	da003d17 	ldw	r8,244(sp)
   429e0:	1021883a 	mov	r16,r2
   429e4:	10f9883a 	add	fp,r2,r3
   429e8:	81000007 	ldb	r4,0(r16)
   429ec:	00800c04 	movi	r2,48
   429f0:	20805e26 	beq	r4,r2,42b6c <___vfprintf_internal_r+0x2088>
   429f4:	d8c02617 	ldw	r3,152(sp)
   429f8:	e0f9883a 	add	fp,fp,r3
   429fc:	003e0a06 	br	42228 <__alt_data_end+0xfffd0228>
   42a00:	00c00b44 	movi	r3,45
   42a04:	24e0003c 	xorhi	r19,r4,32768
   42a08:	d8c02a05 	stb	r3,168(sp)
   42a0c:	003de906 	br	421b4 <__alt_data_end+0xfffd01b4>
   42a10:	d8c03217 	ldw	r3,200(sp)
   42a14:	00c07a0e 	bge	zero,r3,42c00 <___vfprintf_internal_r+0x211c>
   42a18:	00800044 	movi	r2,1
   42a1c:	d9003317 	ldw	r4,204(sp)
   42a20:	1105883a 	add	r2,r2,r4
   42a24:	d8802e15 	stw	r2,184(sp)
   42a28:	10004e16 	blt	r2,zero,42b64 <___vfprintf_internal_r+0x2080>
   42a2c:	044019c4 	movi	r17,103
   42a30:	003e2106 	br	422b8 <__alt_data_end+0xfffd02b8>
   42a34:	d9002917 	ldw	r4,164(sp)
   42a38:	d8802104 	addi	r2,sp,132
   42a3c:	d8800315 	stw	r2,12(sp)
   42a40:	d9000015 	stw	r4,0(sp)
   42a44:	d8802504 	addi	r2,sp,148
   42a48:	d9403617 	ldw	r5,216(sp)
   42a4c:	d9002c17 	ldw	r4,176(sp)
   42a50:	d8800215 	stw	r2,8(sp)
   42a54:	d8802604 	addi	r2,sp,152
   42a58:	d8800115 	stw	r2,4(sp)
   42a5c:	01c000c4 	movi	r7,3
   42a60:	980d883a 	mov	r6,r19
   42a64:	da003d15 	stw	r8,244(sp)
   42a68:	00449940 	call	44994 <_dtoa_r>
   42a6c:	d8c02917 	ldw	r3,164(sp)
   42a70:	da003d17 	ldw	r8,244(sp)
   42a74:	1021883a 	mov	r16,r2
   42a78:	00801184 	movi	r2,70
   42a7c:	80f9883a 	add	fp,r16,r3
   42a80:	88bfd926 	beq	r17,r2,429e8 <__alt_data_end+0xfffd09e8>
   42a84:	003de806 	br	42228 <__alt_data_end+0xfffd0228>
   42a88:	d9002917 	ldw	r4,164(sp)
   42a8c:	00c04d0e 	bge	zero,r3,42bc4 <___vfprintf_internal_r+0x20e0>
   42a90:	2000441e 	bne	r4,zero,42ba4 <___vfprintf_internal_r+0x20c0>
   42a94:	9480004c 	andi	r18,r18,1
   42a98:	9000421e 	bne	r18,zero,42ba4 <___vfprintf_internal_r+0x20c0>
   42a9c:	1805883a 	mov	r2,r3
   42aa0:	18007016 	blt	r3,zero,42c64 <___vfprintf_internal_r+0x2180>
   42aa4:	d8c03217 	ldw	r3,200(sp)
   42aa8:	d8c02e15 	stw	r3,184(sp)
   42aac:	003e0206 	br	422b8 <__alt_data_end+0xfffd02b8>
   42ab0:	df0022c4 	addi	fp,sp,139
   42ab4:	dc002915 	stw	r16,164(sp)
   42ab8:	4027883a 	mov	r19,r8
   42abc:	e021883a 	mov	r16,fp
   42ac0:	b009883a 	mov	r4,r22
   42ac4:	01400284 	movi	r5,10
   42ac8:	00533680 	call	53368 <__modsi3>
   42acc:	10800c04 	addi	r2,r2,48
   42ad0:	843fffc4 	addi	r16,r16,-1
   42ad4:	b009883a 	mov	r4,r22
   42ad8:	01400284 	movi	r5,10
   42adc:	80800005 	stb	r2,0(r16)
   42ae0:	00532e40 	call	532e4 <__divsi3>
   42ae4:	102d883a 	mov	r22,r2
   42ae8:	00800244 	movi	r2,9
   42aec:	15bff416 	blt	r2,r22,42ac0 <__alt_data_end+0xfffd0ac0>
   42af0:	9811883a 	mov	r8,r19
   42af4:	b0800c04 	addi	r2,r22,48
   42af8:	8027883a 	mov	r19,r16
   42afc:	997fffc4 	addi	r5,r19,-1
   42b00:	98bfffc5 	stb	r2,-1(r19)
   42b04:	dc002917 	ldw	r16,164(sp)
   42b08:	2f006a2e 	bgeu	r5,fp,42cb4 <___vfprintf_internal_r+0x21d0>
   42b0c:	d9c02384 	addi	r7,sp,142
   42b10:	3ccfc83a 	sub	r7,r7,r19
   42b14:	d9002344 	addi	r4,sp,141
   42b18:	e1cf883a 	add	r7,fp,r7
   42b1c:	00000106 	br	42b24 <___vfprintf_internal_r+0x2040>
   42b20:	28800003 	ldbu	r2,0(r5)
   42b24:	20800005 	stb	r2,0(r4)
   42b28:	21000044 	addi	r4,r4,1
   42b2c:	29400044 	addi	r5,r5,1
   42b30:	393ffb1e 	bne	r7,r4,42b20 <__alt_data_end+0xfffd0b20>
   42b34:	d8802304 	addi	r2,sp,140
   42b38:	14c5c83a 	sub	r2,r2,r19
   42b3c:	d8c02344 	addi	r3,sp,141
   42b40:	1885883a 	add	r2,r3,r2
   42b44:	003f7006 	br	42908 <__alt_data_end+0xfffd0908>
   42b48:	0005883a 	mov	r2,zero
   42b4c:	003f0f06 	br	4278c <__alt_data_end+0xfffd078c>
   42b50:	d8c03217 	ldw	r3,200(sp)
   42b54:	18c00044 	addi	r3,r3,1
   42b58:	d8c02e15 	stw	r3,184(sp)
   42b5c:	1805883a 	mov	r2,r3
   42b60:	183fb20e 	bge	r3,zero,42a2c <__alt_data_end+0xfffd0a2c>
   42b64:	0005883a 	mov	r2,zero
   42b68:	003fb006 	br	42a2c <__alt_data_end+0xfffd0a2c>
   42b6c:	d9003617 	ldw	r4,216(sp)
   42b70:	000d883a 	mov	r6,zero
   42b74:	000f883a 	mov	r7,zero
   42b78:	980b883a 	mov	r5,r19
   42b7c:	d8c03c15 	stw	r3,240(sp)
   42b80:	da003d15 	stw	r8,244(sp)
   42b84:	00548280 	call	54828 <__eqdf2>
   42b88:	d8c03c17 	ldw	r3,240(sp)
   42b8c:	da003d17 	ldw	r8,244(sp)
   42b90:	103f9826 	beq	r2,zero,429f4 <__alt_data_end+0xfffd09f4>
   42b94:	00800044 	movi	r2,1
   42b98:	10c7c83a 	sub	r3,r2,r3
   42b9c:	d8c02615 	stw	r3,152(sp)
   42ba0:	003f9506 	br	429f8 <__alt_data_end+0xfffd09f8>
   42ba4:	d9002917 	ldw	r4,164(sp)
   42ba8:	d8c03217 	ldw	r3,200(sp)
   42bac:	20800044 	addi	r2,r4,1
   42bb0:	1885883a 	add	r2,r3,r2
   42bb4:	d8802e15 	stw	r2,184(sp)
   42bb8:	103dbf0e 	bge	r2,zero,422b8 <__alt_data_end+0xfffd02b8>
   42bbc:	0005883a 	mov	r2,zero
   42bc0:	003dbd06 	br	422b8 <__alt_data_end+0xfffd02b8>
   42bc4:	2000211e 	bne	r4,zero,42c4c <___vfprintf_internal_r+0x2168>
   42bc8:	9480004c 	andi	r18,r18,1
   42bcc:	90001f1e 	bne	r18,zero,42c4c <___vfprintf_internal_r+0x2168>
   42bd0:	00800044 	movi	r2,1
   42bd4:	d8802e15 	stw	r2,184(sp)
   42bd8:	003db706 	br	422b8 <__alt_data_end+0xfffd02b8>
   42bdc:	00800b44 	movi	r2,45
   42be0:	05adc83a 	sub	r22,zero,r22
   42be4:	d8802305 	stb	r2,140(sp)
   42be8:	003f3f06 	br	428e8 <__alt_data_end+0xfffd08e8>
   42bec:	0005883a 	mov	r2,zero
   42bf0:	003f5206 	br	4293c <__alt_data_end+0xfffd093c>
   42bf4:	90a4703a 	and	r18,r18,r2
   42bf8:	903f4e26 	beq	r18,zero,42934 <__alt_data_end+0xfffd0934>
   42bfc:	003f4a06 	br	42928 <__alt_data_end+0xfffd0928>
   42c00:	00800084 	movi	r2,2
   42c04:	10c5c83a 	sub	r2,r2,r3
   42c08:	003f8406 	br	42a1c <__alt_data_end+0xfffd0a1c>
   42c0c:	d8802d17 	ldw	r2,180(sp)
   42c10:	d9002d17 	ldw	r4,180(sp)
   42c14:	ac400043 	ldbu	r17,1(r21)
   42c18:	10800017 	ldw	r2,0(r2)
   42c1c:	582b883a 	mov	r21,r11
   42c20:	d8802915 	stw	r2,164(sp)
   42c24:	20800104 	addi	r2,r4,4
   42c28:	d9002917 	ldw	r4,164(sp)
   42c2c:	d8802d15 	stw	r2,180(sp)
   42c30:	203e7a0e 	bge	r4,zero,4261c <__alt_data_end+0xfffd061c>
   42c34:	8c403fcc 	andi	r17,r17,255
   42c38:	00bfffc4 	movi	r2,-1
   42c3c:	8c40201c 	xori	r17,r17,128
   42c40:	d8802915 	stw	r2,164(sp)
   42c44:	8c7fe004 	addi	r17,r17,-128
   42c48:	00380706 	br	40c68 <__alt_data_end+0xfffcec68>
   42c4c:	d8c02917 	ldw	r3,164(sp)
   42c50:	18c00084 	addi	r3,r3,2
   42c54:	d8c02e15 	stw	r3,184(sp)
   42c58:	1805883a 	mov	r2,r3
   42c5c:	183d960e 	bge	r3,zero,422b8 <__alt_data_end+0xfffd02b8>
   42c60:	003fd606 	br	42bbc <__alt_data_end+0xfffd0bbc>
   42c64:	0005883a 	mov	r2,zero
   42c68:	003f8e06 	br	42aa4 <__alt_data_end+0xfffd0aa4>
   42c6c:	9080004c 	andi	r2,r18,1
   42c70:	103f811e 	bne	r2,zero,42a78 <__alt_data_end+0xfffd0a78>
   42c74:	d8802117 	ldw	r2,132(sp)
   42c78:	1405c83a 	sub	r2,r2,r16
   42c7c:	d8803315 	stw	r2,204(sp)
   42c80:	b47ef326 	beq	r22,r17,42850 <__alt_data_end+0xfffd0850>
   42c84:	dd802617 	ldw	r22,152(sp)
   42c88:	003f1106 	br	428d0 <__alt_data_end+0xfffd08d0>
   42c8c:	d9c02785 	stb	r7,158(sp)
   42c90:	00390406 	br	410a4 <__alt_data_end+0xfffcf0a4>
   42c94:	d9c02785 	stb	r7,158(sp)
   42c98:	0038d306 	br	40fe8 <__alt_data_end+0xfffcefe8>
   42c9c:	d9c02785 	stb	r7,158(sp)
   42ca0:	003a6106 	br	41628 <__alt_data_end+0xfffcf628>
   42ca4:	d9c02785 	stb	r7,158(sp)
   42ca8:	003af806 	br	4188c <__alt_data_end+0xfffcf88c>
   42cac:	0005883a 	mov	r2,zero
   42cb0:	003d7e06 	br	422ac <__alt_data_end+0xfffd02ac>
   42cb4:	d8802344 	addi	r2,sp,141
   42cb8:	003f1306 	br	42908 <__alt_data_end+0xfffd0908>
   42cbc:	d9c02785 	stb	r7,158(sp)
   42cc0:	00392306 	br	41150 <__alt_data_end+0xfffcf150>
   42cc4:	d9c02785 	stb	r7,158(sp)
   42cc8:	003aa906 	br	41770 <__alt_data_end+0xfffcf770>
   42ccc:	d9c02785 	stb	r7,158(sp)
   42cd0:	003a3d06 	br	415c8 <__alt_data_end+0xfffcf5c8>
   42cd4:	d9c02785 	stb	r7,158(sp)
   42cd8:	003aca06 	br	41804 <__alt_data_end+0xfffcf804>

00042cdc <__vfprintf_internal>:
   42cdc:	008001b4 	movhi	r2,6
   42ce0:	10a02304 	addi	r2,r2,-32628
   42ce4:	300f883a 	mov	r7,r6
   42ce8:	280d883a 	mov	r6,r5
   42cec:	200b883a 	mov	r5,r4
   42cf0:	11000017 	ldw	r4,0(r2)
   42cf4:	0040ae41 	jmpi	40ae4 <___vfprintf_internal_r>

00042cf8 <__sbprintf>:
   42cf8:	2880030b 	ldhu	r2,12(r5)
   42cfc:	2ac01917 	ldw	r11,100(r5)
   42d00:	2a80038b 	ldhu	r10,14(r5)
   42d04:	2a400717 	ldw	r9,28(r5)
   42d08:	2a000917 	ldw	r8,36(r5)
   42d0c:	defee204 	addi	sp,sp,-1144
   42d10:	00c10004 	movi	r3,1024
   42d14:	dc011a15 	stw	r16,1128(sp)
   42d18:	10bfff4c 	andi	r2,r2,65533
   42d1c:	2821883a 	mov	r16,r5
   42d20:	d8cb883a 	add	r5,sp,r3
   42d24:	dc811c15 	stw	r18,1136(sp)
   42d28:	dc411b15 	stw	r17,1132(sp)
   42d2c:	dfc11d15 	stw	ra,1140(sp)
   42d30:	2025883a 	mov	r18,r4
   42d34:	d881030d 	sth	r2,1036(sp)
   42d38:	dac11915 	stw	r11,1124(sp)
   42d3c:	da81038d 	sth	r10,1038(sp)
   42d40:	da410715 	stw	r9,1052(sp)
   42d44:	da010915 	stw	r8,1060(sp)
   42d48:	dec10015 	stw	sp,1024(sp)
   42d4c:	dec10415 	stw	sp,1040(sp)
   42d50:	d8c10215 	stw	r3,1032(sp)
   42d54:	d8c10515 	stw	r3,1044(sp)
   42d58:	d8010615 	stw	zero,1048(sp)
   42d5c:	0040ae40 	call	40ae4 <___vfprintf_internal_r>
   42d60:	1023883a 	mov	r17,r2
   42d64:	10000416 	blt	r2,zero,42d78 <__sbprintf+0x80>
   42d68:	d9410004 	addi	r5,sp,1024
   42d6c:	9009883a 	mov	r4,r18
   42d70:	00462380 	call	46238 <_fflush_r>
   42d74:	10000d1e 	bne	r2,zero,42dac <__sbprintf+0xb4>
   42d78:	d881030b 	ldhu	r2,1036(sp)
   42d7c:	1080100c 	andi	r2,r2,64
   42d80:	10000326 	beq	r2,zero,42d90 <__sbprintf+0x98>
   42d84:	8080030b 	ldhu	r2,12(r16)
   42d88:	10801014 	ori	r2,r2,64
   42d8c:	8080030d 	sth	r2,12(r16)
   42d90:	8805883a 	mov	r2,r17
   42d94:	dfc11d17 	ldw	ra,1140(sp)
   42d98:	dc811c17 	ldw	r18,1136(sp)
   42d9c:	dc411b17 	ldw	r17,1132(sp)
   42da0:	dc011a17 	ldw	r16,1128(sp)
   42da4:	dec11e04 	addi	sp,sp,1144
   42da8:	f800283a 	ret
   42dac:	047fffc4 	movi	r17,-1
   42db0:	003ff106 	br	42d78 <__alt_data_end+0xfffd0d78>

00042db4 <__svfscanf_r>:
   42db4:	2880030b 	ldhu	r2,12(r5)
   42db8:	deff4b04 	addi	sp,sp,-724
   42dbc:	df00b315 	stw	fp,716(sp)
   42dc0:	dd80b115 	stw	r22,708(sp)
   42dc4:	dfc0b415 	stw	ra,720(sp)
   42dc8:	ddc0b215 	stw	r23,712(sp)
   42dcc:	dd40b015 	stw	r21,704(sp)
   42dd0:	dd00af15 	stw	r20,700(sp)
   42dd4:	dcc0ae15 	stw	r19,696(sp)
   42dd8:	dc80ad15 	stw	r18,692(sp)
   42ddc:	dc40ac15 	stw	r17,688(sp)
   42de0:	dc00ab15 	stw	r16,684(sp)
   42de4:	10c8000c 	andi	r3,r2,8192
   42de8:	d9c09c15 	stw	r7,624(sp)
   42dec:	2839883a 	mov	fp,r5
   42df0:	202d883a 	mov	r22,r4
   42df4:	1800061e 	bne	r3,zero,42e10 <__svfscanf_r+0x5c>
   42df8:	29001917 	ldw	r4,100(r5)
   42dfc:	00f7ffc4 	movi	r3,-8193
   42e00:	10880014 	ori	r2,r2,8192
   42e04:	20c6703a 	and	r3,r4,r3
   42e08:	2880030d 	sth	r2,12(r5)
   42e0c:	28c01915 	stw	r3,100(r5)
   42e10:	30800003 	ldbu	r2,0(r6)
   42e14:	0021883a 	mov	r16,zero
   42e18:	05c001b4 	movhi	r23,6
   42e1c:	d800a115 	stw	zero,644(sp)
   42e20:	d8009e15 	stw	zero,632(sp)
   42e24:	d800a015 	stw	zero,640(sp)
   42e28:	d8809b15 	stw	r2,620(sp)
   42e2c:	bde02104 	addi	r23,r23,-32636
   42e30:	8025883a 	mov	r18,r16
   42e34:	35000044 	addi	r20,r6,1
   42e38:	10001e26 	beq	r2,zero,42eb4 <__svfscanf_r+0x100>
   42e3c:	b9c00017 	ldw	r7,0(r23)
   42e40:	3887883a 	add	r3,r7,r2
   42e44:	18c00043 	ldbu	r3,1(r3)
   42e48:	18c0020c 	andi	r3,r3,8
   42e4c:	18001b26 	beq	r3,zero,42ebc <__svfscanf_r+0x108>
   42e50:	e0800117 	ldw	r2,4(fp)
   42e54:	00800e0e 	bge	zero,r2,42e90 <__svfscanf_r+0xdc>
   42e58:	e0c00017 	ldw	r3,0(fp)
   42e5c:	b9000017 	ldw	r4,0(r23)
   42e60:	18800003 	ldbu	r2,0(r3)
   42e64:	2085883a 	add	r2,r4,r2
   42e68:	10800043 	ldbu	r2,1(r2)
   42e6c:	1080020c 	andi	r2,r2,8
   42e70:	10000b26 	beq	r2,zero,42ea0 <__svfscanf_r+0xec>
   42e74:	e0800117 	ldw	r2,4(fp)
   42e78:	18c00044 	addi	r3,r3,1
   42e7c:	e0c00015 	stw	r3,0(fp)
   42e80:	10bfffc4 	addi	r2,r2,-1
   42e84:	e0800115 	stw	r2,4(fp)
   42e88:	94800044 	addi	r18,r18,1
   42e8c:	00bff216 	blt	zero,r2,42e58 <__alt_data_end+0xfffd0e58>
   42e90:	e00b883a 	mov	r5,fp
   42e94:	b009883a 	mov	r4,r22
   42e98:	0049a800 	call	49a80 <__srefill_r>
   42e9c:	103fee26 	beq	r2,zero,42e58 <__alt_data_end+0xfffd0e58>
   42ea0:	a00d883a 	mov	r6,r20
   42ea4:	30800003 	ldbu	r2,0(r6)
   42ea8:	35000044 	addi	r20,r6,1
   42eac:	d8809b15 	stw	r2,620(sp)
   42eb0:	103fe21e 	bne	r2,zero,42e3c <__alt_data_end+0xfffd0e3c>
   42eb4:	d880a017 	ldw	r2,640(sp)
   42eb8:	00009906 	br	43120 <__svfscanf_r+0x36c>
   42ebc:	00c00944 	movi	r3,37
   42ec0:	10c0881e 	bne	r2,r3,430e4 <__svfscanf_r+0x330>
   42ec4:	30c00043 	ldbu	r3,1(r6)
   42ec8:	0023883a 	mov	r17,zero
   42ecc:	0027883a 	mov	r19,zero
   42ed0:	01001e04 	movi	r4,120
   42ed4:	01401b04 	movi	r5,108
   42ed8:	a1800044 	addi	r6,r20,1
   42edc:	20c0a236 	bltu	r4,r3,43168 <__svfscanf_r+0x3b4>
   42ee0:	180490ba 	slli	r2,r3,2
   42ee4:	02000134 	movhi	r8,4
   42ee8:	420bbe04 	addi	r8,r8,12024
   42eec:	1205883a 	add	r2,r2,r8
   42ef0:	10800017 	ldw	r2,0(r2)
   42ef4:	1000683a 	jmp	r2
   42ef8:	0004311c 	xori	zero,zero,4292
   42efc:	00043168 	cmpgeui	zero,zero,4293
   42f00:	00043168 	cmpgeui	zero,zero,4293
   42f04:	00043168 	cmpgeui	zero,zero,4293
   42f08:	00043168 	cmpgeui	zero,zero,4293
   42f0c:	00043168 	cmpgeui	zero,zero,4293
   42f10:	00043168 	cmpgeui	zero,zero,4293
   42f14:	00043168 	cmpgeui	zero,zero,4293
   42f18:	00043168 	cmpgeui	zero,zero,4293
   42f1c:	00043168 	cmpgeui	zero,zero,4293
   42f20:	00043168 	cmpgeui	zero,zero,4293
   42f24:	00043168 	cmpgeui	zero,zero,4293
   42f28:	00043168 	cmpgeui	zero,zero,4293
   42f2c:	00043168 	cmpgeui	zero,zero,4293
   42f30:	00043168 	cmpgeui	zero,zero,4293
   42f34:	00043168 	cmpgeui	zero,zero,4293
   42f38:	00043168 	cmpgeui	zero,zero,4293
   42f3c:	00043168 	cmpgeui	zero,zero,4293
   42f40:	00043168 	cmpgeui	zero,zero,4293
   42f44:	00043168 	cmpgeui	zero,zero,4293
   42f48:	00043168 	cmpgeui	zero,zero,4293
   42f4c:	00043168 	cmpgeui	zero,zero,4293
   42f50:	00043168 	cmpgeui	zero,zero,4293
   42f54:	00043168 	cmpgeui	zero,zero,4293
   42f58:	00043168 	cmpgeui	zero,zero,4293
   42f5c:	00043168 	cmpgeui	zero,zero,4293
   42f60:	00043168 	cmpgeui	zero,zero,4293
   42f64:	00043168 	cmpgeui	zero,zero,4293
   42f68:	00043168 	cmpgeui	zero,zero,4293
   42f6c:	00043168 	cmpgeui	zero,zero,4293
   42f70:	00043168 	cmpgeui	zero,zero,4293
   42f74:	00043168 	cmpgeui	zero,zero,4293
   42f78:	00043168 	cmpgeui	zero,zero,4293
   42f7c:	00043168 	cmpgeui	zero,zero,4293
   42f80:	00043168 	cmpgeui	zero,zero,4293
   42f84:	00043168 	cmpgeui	zero,zero,4293
   42f88:	00043168 	cmpgeui	zero,zero,4293
   42f8c:	000430dc 	xori	zero,zero,4291
   42f90:	00043168 	cmpgeui	zero,zero,4293
   42f94:	00043168 	cmpgeui	zero,zero,4293
   42f98:	00043168 	cmpgeui	zero,zero,4293
   42f9c:	00043168 	cmpgeui	zero,zero,4293
   42fa0:	00043150 	cmplti	zero,zero,4293
   42fa4:	00043168 	cmpgeui	zero,zero,4293
   42fa8:	00043168 	cmpgeui	zero,zero,4293
   42fac:	00043168 	cmpgeui	zero,zero,4293
   42fb0:	00043168 	cmpgeui	zero,zero,4293
   42fb4:	00043168 	cmpgeui	zero,zero,4293
   42fb8:	00043284 	movi	zero,4298
   42fbc:	00043284 	movi	zero,4298
   42fc0:	00043284 	movi	zero,4298
   42fc4:	00043284 	movi	zero,4298
   42fc8:	00043284 	movi	zero,4298
   42fcc:	00043284 	movi	zero,4298
   42fd0:	00043284 	movi	zero,4298
   42fd4:	00043284 	movi	zero,4298
   42fd8:	00043284 	movi	zero,4298
   42fdc:	00043284 	movi	zero,4298
   42fe0:	00043168 	cmpgeui	zero,zero,4293
   42fe4:	00043168 	cmpgeui	zero,zero,4293
   42fe8:	00043168 	cmpgeui	zero,zero,4293
   42fec:	00043168 	cmpgeui	zero,zero,4293
   42ff0:	00043168 	cmpgeui	zero,zero,4293
   42ff4:	00043168 	cmpgeui	zero,zero,4293
   42ff8:	00043168 	cmpgeui	zero,zero,4293
   42ffc:	00043168 	cmpgeui	zero,zero,4293
   43000:	00043168 	cmpgeui	zero,zero,4293
   43004:	00043168 	cmpgeui	zero,zero,4293
   43008:	00043258 	cmpnei	zero,zero,4297
   4300c:	00043308 	cmpgei	zero,zero,4300
   43010:	00043168 	cmpgeui	zero,zero,4293
   43014:	00043308 	cmpgei	zero,zero,4300
   43018:	00043168 	cmpgeui	zero,zero,4293
   4301c:	00043168 	cmpgeui	zero,zero,4293
   43020:	00043168 	cmpgeui	zero,zero,4293
   43024:	00043168 	cmpgeui	zero,zero,4293
   43028:	000432f4 	movhi	zero,4299
   4302c:	00043168 	cmpgeui	zero,zero,4293
   43030:	00043168 	cmpgeui	zero,zero,4293
   43034:	000432c8 	cmpgei	zero,zero,4299
   43038:	00043168 	cmpgeui	zero,zero,4293
   4303c:	00043168 	cmpgeui	zero,zero,4293
   43040:	00043168 	cmpgeui	zero,zero,4293
   43044:	00043168 	cmpgeui	zero,zero,4293
   43048:	00043168 	cmpgeui	zero,zero,4293
   4304c:	00043168 	cmpgeui	zero,zero,4293
   43050:	00043168 	cmpgeui	zero,zero,4293
   43054:	00043168 	cmpgeui	zero,zero,4293
   43058:	000432a0 	cmpeqi	zero,zero,4298
   4305c:	00043168 	cmpgeui	zero,zero,4293
   43060:	00043168 	cmpgeui	zero,zero,4293
   43064:	0004343c 	xorhi	zero,zero,4304
   43068:	00043168 	cmpgeui	zero,zero,4293
   4306c:	00043168 	cmpgeui	zero,zero,4293
   43070:	00043168 	cmpgeui	zero,zero,4293
   43074:	00043168 	cmpgeui	zero,zero,4293
   43078:	00043168 	cmpgeui	zero,zero,4293
   4307c:	00043168 	cmpgeui	zero,zero,4293
   43080:	00043168 	cmpgeui	zero,zero,4293
   43084:	000433c0 	call	433c <__alt_mem_IMEM-0x3bcc4>
   43088:	00043398 	cmpnei	zero,zero,4302
   4308c:	00043308 	cmpgei	zero,zero,4300
   43090:	00043308 	cmpgei	zero,zero,4300
   43094:	00043308 	cmpgei	zero,zero,4300
   43098:	00043384 	movi	zero,4302
   4309c:	000434c8 	cmpgei	zero,zero,4307
   430a0:	00043168 	cmpgeui	zero,zero,4293
   430a4:	00043168 	cmpgeui	zero,zero,4293
   430a8:	00043370 	cmpltui	zero,zero,4301
   430ac:	00043168 	cmpgeui	zero,zero,4293
   430b0:	00043340 	call	4334 <__alt_mem_IMEM-0x3bccc>
   430b4:	0004331c 	xori	zero,zero,4300
   430b8:	0004322c 	andhi	zero,zero,4296
   430bc:	00043168 	cmpgeui	zero,zero,4293
   430c0:	00043168 	cmpgeui	zero,zero,4293
   430c4:	00043218 	cmpnei	zero,zero,4296
   430c8:	00043168 	cmpgeui	zero,zero,4293
   430cc:	000431a0 	cmpeqi	zero,zero,4294
   430d0:	00043168 	cmpgeui	zero,zero,4293
   430d4:	00043168 	cmpgeui	zero,zero,4293
   430d8:	000432a0 	cmpeqi	zero,zero,4298
   430dc:	d9809d15 	stw	r6,628(sp)
   430e0:	3029883a 	mov	r20,r6
   430e4:	e0800117 	ldw	r2,4(fp)
   430e8:	0081aa0e 	bge	zero,r2,43794 <__svfscanf_r+0x9e0>
   430ec:	e0800017 	ldw	r2,0(fp)
   430f0:	a0ffffc3 	ldbu	r3,-1(r20)
   430f4:	11000003 	ldbu	r4,0(r2)
   430f8:	20ff6e1e 	bne	r4,r3,42eb4 <__alt_data_end+0xfffd0eb4>
   430fc:	e0c00117 	ldw	r3,4(fp)
   43100:	10800044 	addi	r2,r2,1
   43104:	e0800015 	stw	r2,0(fp)
   43108:	18bfffc4 	addi	r2,r3,-1
   4310c:	e0800115 	stw	r2,4(fp)
   43110:	94800044 	addi	r18,r18,1
   43114:	a00d883a 	mov	r6,r20
   43118:	003f6206 	br	42ea4 <__alt_data_end+0xfffd0ea4>
   4311c:	00bfffc4 	movi	r2,-1
   43120:	dfc0b417 	ldw	ra,720(sp)
   43124:	df00b317 	ldw	fp,716(sp)
   43128:	ddc0b217 	ldw	r23,712(sp)
   4312c:	dd80b117 	ldw	r22,708(sp)
   43130:	dd40b017 	ldw	r21,704(sp)
   43134:	dd00af17 	ldw	r20,700(sp)
   43138:	dcc0ae17 	ldw	r19,696(sp)
   4313c:	dc80ad17 	ldw	r18,692(sp)
   43140:	dc40ac17 	ldw	r17,688(sp)
   43144:	dc00ab17 	ldw	r16,684(sp)
   43148:	dec0b504 	addi	sp,sp,724
   4314c:	f800283a 	ret
   43150:	a0800043 	ldbu	r2,1(r20)
   43154:	3029883a 	mov	r20,r6
   43158:	8c400414 	ori	r17,r17,16
   4315c:	10c03fcc 	andi	r3,r2,255
   43160:	a1800044 	addi	r6,r20,1
   43164:	20ff5e2e 	bgeu	r4,r3,42ee0 <__alt_data_end+0xfffd0ee0>
   43168:	38c7883a 	add	r3,r7,r3
   4316c:	18800043 	ldbu	r2,1(r3)
   43170:	d9809d15 	stw	r6,628(sp)
   43174:	00c00044 	movi	r3,1
   43178:	108000cc 	andi	r2,r2,3
   4317c:	10c18f26 	beq	r2,r3,437bc <__svfscanf_r+0xa08>
   43180:	e0800117 	ldw	r2,4(fp)
   43184:	00808716 	blt	zero,r2,433a4 <__svfscanf_r+0x5f0>
   43188:	e00b883a 	mov	r5,fp
   4318c:	b009883a 	mov	r4,r22
   43190:	0049a800 	call	49a80 <__srefill_r>
   43194:	1001431e 	bne	r2,zero,436a4 <__svfscanf_r+0x8f0>
   43198:	b9c00017 	ldw	r7,0(r23)
   4319c:	00008106 	br	433a4 <__svfscanf_r+0x5f0>
   431a0:	e0800117 	ldw	r2,4(fp)
   431a4:	d9809d15 	stw	r6,628(sp)
   431a8:	0081a30e 	bge	zero,r2,43838 <__svfscanf_r+0xa84>
   431ac:	00800174 	movhi	r2,5
   431b0:	10af6704 	addi	r2,r2,-16996
   431b4:	02000284 	movi	r8,10
   431b8:	d880a115 	stw	r2,644(sp)
   431bc:	da009e15 	stw	r8,632(sp)
   431c0:	050000c4 	movi	r20,3
   431c4:	e0c00017 	ldw	r3,0(fp)
   431c8:	00000206 	br	431d4 <__svfscanf_r+0x420>
   431cc:	18c00044 	addi	r3,r3,1
   431d0:	e0c00015 	stw	r3,0(fp)
   431d4:	19000003 	ldbu	r4,0(r3)
   431d8:	20803fcc 	andi	r2,r4,255
   431dc:	3885883a 	add	r2,r7,r2
   431e0:	10800043 	ldbu	r2,1(r2)
   431e4:	1140020c 	andi	r5,r2,8
   431e8:	2801ab26 	beq	r5,zero,43898 <__svfscanf_r+0xae4>
   431ec:	e0800117 	ldw	r2,4(fp)
   431f0:	94800044 	addi	r18,r18,1
   431f4:	10bfffc4 	addi	r2,r2,-1
   431f8:	e0800115 	stw	r2,4(fp)
   431fc:	00bff316 	blt	zero,r2,431cc <__alt_data_end+0xfffd11cc>
   43200:	e00b883a 	mov	r5,fp
   43204:	b009883a 	mov	r4,r22
   43208:	0049a800 	call	49a80 <__srefill_r>
   4320c:	1001251e 	bne	r2,zero,436a4 <__svfscanf_r+0x8f0>
   43210:	b9c00017 	ldw	r7,0(r23)
   43214:	003feb06 	br	431c4 <__alt_data_end+0xfffd11c4>
   43218:	e0800117 	ldw	r2,4(fp)
   4321c:	d9809d15 	stw	r6,628(sp)
   43220:	00818b0e 	bge	zero,r2,43850 <__svfscanf_r+0xa9c>
   43224:	05000084 	movi	r20,2
   43228:	003fe606 	br	431c4 <__alt_data_end+0xfffd11c4>
   4322c:	e0800117 	ldw	r2,4(fp)
   43230:	d9809d15 	stw	r6,628(sp)
   43234:	8c408814 	ori	r17,r17,544
   43238:	00801d0e 	bge	zero,r2,432b0 <__svfscanf_r+0x4fc>
   4323c:	00800174 	movhi	r2,5
   43240:	10af6704 	addi	r2,r2,-16996
   43244:	02000404 	movi	r8,16
   43248:	d880a115 	stw	r2,644(sp)
   4324c:	da009e15 	stw	r8,632(sp)
   43250:	050000c4 	movi	r20,3
   43254:	003fdb06 	br	431c4 <__alt_data_end+0xfffd11c4>
   43258:	e0800117 	ldw	r2,4(fp)
   4325c:	d9809d15 	stw	r6,628(sp)
   43260:	8c400054 	ori	r17,r17,1
   43264:	00bfc80e 	bge	zero,r2,43188 <__alt_data_end+0xfffd1188>
   43268:	00c00174 	movhi	r3,5
   4326c:	18ee1104 	addi	r3,r3,-18364
   43270:	02000284 	movi	r8,10
   43274:	d8c0a115 	stw	r3,644(sp)
   43278:	da009e15 	stw	r8,632(sp)
   4327c:	050000c4 	movi	r20,3
   43280:	003fd006 	br	431c4 <__alt_data_end+0xfffd11c4>
   43284:	9cc002a4 	muli	r19,r19,10
   43288:	a0800043 	ldbu	r2,1(r20)
   4328c:	3029883a 	mov	r20,r6
   43290:	98e7883a 	add	r19,r19,r3
   43294:	9cfff404 	addi	r19,r19,-48
   43298:	10c03fcc 	andi	r3,r2,255
   4329c:	003f0e06 	br	42ed8 <__alt_data_end+0xfffd0ed8>
   432a0:	e0800117 	ldw	r2,4(fp)
   432a4:	d9809d15 	stw	r6,628(sp)
   432a8:	8c408014 	ori	r17,r17,512
   432ac:	00bfe316 	blt	zero,r2,4323c <__alt_data_end+0xfffd123c>
   432b0:	e00b883a 	mov	r5,fp
   432b4:	b009883a 	mov	r4,r22
   432b8:	0049a800 	call	49a80 <__srefill_r>
   432bc:	1000f91e 	bne	r2,zero,436a4 <__svfscanf_r+0x8f0>
   432c0:	b9c00017 	ldw	r7,0(r23)
   432c4:	003fdd06 	br	4323c <__alt_data_end+0xfffd123c>
   432c8:	e0800117 	ldw	r2,4(fp)
   432cc:	d9809d15 	stw	r6,628(sp)
   432d0:	8c400054 	ori	r17,r17,1
   432d4:	0080140e 	bge	zero,r2,43328 <__svfscanf_r+0x574>
   432d8:	00800174 	movhi	r2,5
   432dc:	10af6704 	addi	r2,r2,-16996
   432e0:	02000204 	movi	r8,8
   432e4:	d880a115 	stw	r2,644(sp)
   432e8:	da009e15 	stw	r8,632(sp)
   432ec:	050000c4 	movi	r20,3
   432f0:	003fb406 	br	431c4 <__alt_data_end+0xfffd11c4>
   432f4:	a0800043 	ldbu	r2,1(r20)
   432f8:	8c400094 	ori	r17,r17,2
   432fc:	3029883a 	mov	r20,r6
   43300:	10c03fcc 	andi	r3,r2,255
   43304:	003ef406 	br	42ed8 <__alt_data_end+0xfffd0ed8>
   43308:	e0800117 	ldw	r2,4(fp)
   4330c:	d9809d15 	stw	r6,628(sp)
   43310:	0081420e 	bge	zero,r2,4381c <__svfscanf_r+0xa68>
   43314:	05000104 	movi	r20,4
   43318:	003faa06 	br	431c4 <__alt_data_end+0xfffd11c4>
   4331c:	e0800117 	ldw	r2,4(fp)
   43320:	d9809d15 	stw	r6,628(sp)
   43324:	00bfec16 	blt	zero,r2,432d8 <__alt_data_end+0xfffd12d8>
   43328:	e00b883a 	mov	r5,fp
   4332c:	b009883a 	mov	r4,r22
   43330:	0049a800 	call	49a80 <__srefill_r>
   43334:	1000db1e 	bne	r2,zero,436a4 <__svfscanf_r+0x8f0>
   43338:	b9c00017 	ldw	r7,0(r23)
   4333c:	003fe606 	br	432d8 <__alt_data_end+0xfffd12d8>
   43340:	d9809d15 	stw	r6,628(sp)
   43344:	8880040c 	andi	r2,r17,16
   43348:	10009c1e 	bne	r2,zero,435bc <__svfscanf_r+0x808>
   4334c:	8880010c 	andi	r2,r17,4
   43350:	10011e26 	beq	r2,zero,437cc <__svfscanf_r+0xa18>
   43354:	da009c17 	ldw	r8,624(sp)
   43358:	3029883a 	mov	r20,r6
   4335c:	40800017 	ldw	r2,0(r8)
   43360:	42000104 	addi	r8,r8,4
   43364:	da009c15 	stw	r8,624(sp)
   43368:	1480000d 	sth	r18,0(r2)
   4336c:	003ecc06 	br	42ea0 <__alt_data_end+0xfffd0ea0>
   43370:	a0c00043 	ldbu	r3,1(r20)
   43374:	19410c26 	beq	r3,r5,437a8 <__svfscanf_r+0x9f4>
   43378:	8c400054 	ori	r17,r17,1
   4337c:	3029883a 	mov	r20,r6
   43380:	003ed506 	br	42ed8 <__alt_data_end+0xfffd0ed8>
   43384:	a0800043 	ldbu	r2,1(r20)
   43388:	8c400114 	ori	r17,r17,4
   4338c:	3029883a 	mov	r20,r6
   43390:	10c03fcc 	andi	r3,r2,255
   43394:	003ed006 	br	42ed8 <__alt_data_end+0xfffd0ed8>
   43398:	e0800117 	ldw	r2,4(fp)
   4339c:	d9809d15 	stw	r6,628(sp)
   433a0:	00bf790e 	bge	zero,r2,43188 <__alt_data_end+0xfffd1188>
   433a4:	00800174 	movhi	r2,5
   433a8:	10ae1104 	addi	r2,r2,-18364
   433ac:	02000284 	movi	r8,10
   433b0:	d880a115 	stw	r2,644(sp)
   433b4:	da009e15 	stw	r8,632(sp)
   433b8:	050000c4 	movi	r20,3
   433bc:	003f8106 	br	431c4 <__alt_data_end+0xfffd11c4>
   433c0:	e0800117 	ldw	r2,4(fp)
   433c4:	d9809d15 	stw	r6,628(sp)
   433c8:	0080c40e 	bge	zero,r2,436dc <__svfscanf_r+0x928>
   433cc:	9800011e 	bne	r19,zero,433d4 <__svfscanf_r+0x620>
   433d0:	04c00044 	movi	r19,1
   433d4:	8880004c 	andi	r2,r17,1
   433d8:	1000441e 	bne	r2,zero,434ec <__svfscanf_r+0x738>
   433dc:	8c40040c 	andi	r17,r17,16
   433e0:	8800da26 	beq	r17,zero,4374c <__svfscanf_r+0x998>
   433e4:	0021883a 	mov	r16,zero
   433e8:	00000806 	br	4340c <__svfscanf_r+0x658>
   433ec:	1887883a 	add	r3,r3,r2
   433f0:	e00b883a 	mov	r5,fp
   433f4:	b009883a 	mov	r4,r22
   433f8:	e0c00015 	stw	r3,0(fp)
   433fc:	80a1883a 	add	r16,r16,r2
   43400:	98a7c83a 	sub	r19,r19,r2
   43404:	0049a800 	call	49a80 <__srefill_r>
   43408:	1000ca1e 	bne	r2,zero,43734 <__svfscanf_r+0x980>
   4340c:	e0800117 	ldw	r2,4(fp)
   43410:	e0c00017 	ldw	r3,0(fp)
   43414:	14fff516 	blt	r2,r19,433ec <__alt_data_end+0xfffd13ec>
   43418:	14c5c83a 	sub	r2,r2,r19
   4341c:	1cd5883a 	add	r10,r3,r19
   43420:	84e1883a 	add	r16,r16,r19
   43424:	e0800115 	stw	r2,4(fp)
   43428:	e2800015 	stw	r10,0(fp)
   4342c:	dd009d17 	ldw	r20,628(sp)
   43430:	9425883a 	add	r18,r18,r16
   43434:	a00d883a 	mov	r6,r20
   43438:	003e9a06 	br	42ea4 <__alt_data_end+0xfffd0ea4>
   4343c:	300b883a 	mov	r5,r6
   43440:	d9005884 	addi	r4,sp,354
   43444:	d9809d15 	stw	r6,628(sp)
   43448:	0049d1c0 	call	49d1c <__sccl>
   4344c:	1029883a 	mov	r20,r2
   43450:	e0800117 	ldw	r2,4(fp)
   43454:	0081050e 	bge	zero,r2,4386c <__svfscanf_r+0xab8>
   43458:	e1000017 	ldw	r4,0(fp)
   4345c:	20800003 	ldbu	r2,0(r4)
   43460:	98005926 	beq	r19,zero,435c8 <__svfscanf_r+0x814>
   43464:	8c40040c 	andi	r17,r17,16
   43468:	88005a26 	beq	r17,zero,435d4 <__svfscanf_r+0x820>
   4346c:	9823883a 	mov	r17,r19
   43470:	0021883a 	mov	r16,zero
   43474:	00000106 	br	4347c <__svfscanf_r+0x6c8>
   43478:	20800003 	ldbu	r2,0(r4)
   4347c:	10803fcc 	andi	r2,r2,255
   43480:	d8c05884 	addi	r3,sp,354
   43484:	1885883a 	add	r2,r3,r2
   43488:	10800007 	ldb	r2,0(r2)
   4348c:	1000ad26 	beq	r2,zero,43744 <__svfscanf_r+0x990>
   43490:	e0800117 	ldw	r2,4(fp)
   43494:	21000044 	addi	r4,r4,1
   43498:	84000044 	addi	r16,r16,1
   4349c:	10bfffc4 	addi	r2,r2,-1
   434a0:	e0800115 	stw	r2,4(fp)
   434a4:	e1000015 	stw	r4,0(fp)
   434a8:	84c0a026 	beq	r16,r19,4372c <__svfscanf_r+0x978>
   434ac:	00bff216 	blt	zero,r2,43478 <__alt_data_end+0xfffd1478>
   434b0:	e00b883a 	mov	r5,fp
   434b4:	b009883a 	mov	r4,r22
   434b8:	0049a800 	call	49a80 <__srefill_r>
   434bc:	10009a1e 	bne	r2,zero,43728 <__svfscanf_r+0x974>
   434c0:	e1000017 	ldw	r4,0(fp)
   434c4:	003fec06 	br	43478 <__alt_data_end+0xfffd1478>
   434c8:	e0800117 	ldw	r2,4(fp)
   434cc:	d9809d15 	stw	r6,628(sp)
   434d0:	0080eb0e 	bge	zero,r2,43880 <__svfscanf_r+0xacc>
   434d4:	00800174 	movhi	r2,5
   434d8:	10ae1104 	addi	r2,r2,-18364
   434dc:	d880a115 	stw	r2,644(sp)
   434e0:	d8009e15 	stw	zero,632(sp)
   434e4:	050000c4 	movi	r20,3
   434e8:	003f3606 	br	431c4 <__alt_data_end+0xfffd11c4>
   434ec:	dd409904 	addi	r21,sp,612
   434f0:	8c40040c 	andi	r17,r17,16
   434f4:	01800204 	movi	r6,8
   434f8:	000b883a 	mov	r5,zero
   434fc:	a809883a 	mov	r4,r21
   43500:	dc409f15 	stw	r17,636(sp)
   43504:	00482740 	call	48274 <memset>
   43508:	dc409f17 	ldw	r17,636(sp)
   4350c:	88006e26 	beq	r17,zero,436c8 <__svfscanf_r+0x914>
   43510:	0029883a 	mov	r20,zero
   43514:	0023883a 	mov	r17,zero
   43518:	00473f40 	call	473f4 <__locale_mb_cur_max>
   4351c:	14406126 	beq	r2,r17,436a4 <__svfscanf_r+0x8f0>
   43520:	e0800017 	ldw	r2,0(fp)
   43524:	e0c00117 	ldw	r3,4(fp)
   43528:	d9000104 	addi	r4,sp,4
   4352c:	12000003 	ldbu	r8,0(r2)
   43530:	18ffffc4 	addi	r3,r3,-1
   43534:	10800044 	addi	r2,r2,1
   43538:	e0c00115 	stw	r3,4(fp)
   4353c:	e0800015 	stw	r2,0(fp)
   43540:	8c000044 	addi	r16,r17,1
   43544:	dd400015 	stw	r21,0(sp)
   43548:	2463883a 	add	r17,r4,r17
   4354c:	200d883a 	mov	r6,r4
   43550:	a00b883a 	mov	r5,r20
   43554:	800f883a 	mov	r7,r16
   43558:	b009883a 	mov	r4,r22
   4355c:	8a000005 	stb	r8,0(r17)
   43560:	0047e100 	call	47e10 <_mbrtowc_r>
   43564:	017fffc4 	movi	r5,-1
   43568:	11404e26 	beq	r2,r5,436a4 <__svfscanf_r+0x8f0>
   4356c:	1000601e 	bne	r2,zero,436f0 <__svfscanf_r+0x93c>
   43570:	da009f17 	ldw	r8,636(sp)
   43574:	4000641e 	bne	r8,zero,43708 <__svfscanf_r+0x954>
   43578:	a0000015 	stw	zero,0(r20)
   4357c:	9425883a 	add	r18,r18,r16
   43580:	9967883a 	add	r19,r19,r5
   43584:	a5000104 	addi	r20,r20,4
   43588:	e0800117 	ldw	r2,4(fp)
   4358c:	0023883a 	mov	r17,zero
   43590:	00804b16 	blt	zero,r2,436c0 <__svfscanf_r+0x90c>
   43594:	e00b883a 	mov	r5,fp
   43598:	b009883a 	mov	r4,r22
   4359c:	0049a800 	call	49a80 <__srefill_r>
   435a0:	10004726 	beq	r2,zero,436c0 <__svfscanf_r+0x90c>
   435a4:	88003f1e 	bne	r17,zero,436a4 <__svfscanf_r+0x8f0>
   435a8:	d8c09f17 	ldw	r3,636(sp)
   435ac:	1800031e 	bne	r3,zero,435bc <__svfscanf_r+0x808>
   435b0:	da00a017 	ldw	r8,640(sp)
   435b4:	42000044 	addi	r8,r8,1
   435b8:	da00a015 	stw	r8,640(sp)
   435bc:	dd009d17 	ldw	r20,628(sp)
   435c0:	a00d883a 	mov	r6,r20
   435c4:	003e3706 	br	42ea4 <__alt_data_end+0xfffd0ea4>
   435c8:	8c40040c 	andi	r17,r17,16
   435cc:	04ffffc4 	movi	r19,-1
   435d0:	883fa61e 	bne	r17,zero,4346c <__alt_data_end+0xfffd146c>
   435d4:	da009c17 	ldw	r8,624(sp)
   435d8:	9abfffc4 	addi	r10,r19,-1
   435dc:	44000017 	ldw	r16,0(r8)
   435e0:	44400104 	addi	r17,r8,4
   435e4:	8007883a 	mov	r3,r16
   435e8:	82ab883a 	add	r21,r16,r10
   435ec:	00000306 	br	435fc <__svfscanf_r+0x848>
   435f0:	e1000017 	ldw	r4,0(fp)
   435f4:	9807883a 	mov	r3,r19
   435f8:	20800003 	ldbu	r2,0(r4)
   435fc:	10803fcc 	andi	r2,r2,255
   43600:	d9405884 	addi	r5,sp,354
   43604:	2885883a 	add	r2,r5,r2
   43608:	10800007 	ldb	r2,0(r2)
   4360c:	10004b26 	beq	r2,zero,4373c <__svfscanf_r+0x988>
   43610:	e0800117 	ldw	r2,4(fp)
   43614:	21400044 	addi	r5,r4,1
   43618:	e1400015 	stw	r5,0(fp)
   4361c:	10bfffc4 	addi	r2,r2,-1
   43620:	e0800115 	stw	r2,4(fp)
   43624:	20800003 	ldbu	r2,0(r4)
   43628:	1cc00044 	addi	r19,r3,1
   4362c:	18800005 	stb	r2,0(r3)
   43630:	1d400726 	beq	r3,r21,43650 <__svfscanf_r+0x89c>
   43634:	e0800117 	ldw	r2,4(fp)
   43638:	00bfed16 	blt	zero,r2,435f0 <__alt_data_end+0xfffd15f0>
   4363c:	e00b883a 	mov	r5,fp
   43640:	b009883a 	mov	r4,r22
   43644:	0049a800 	call	49a80 <__srefill_r>
   43648:	103fe926 	beq	r2,zero,435f0 <__alt_data_end+0xfffd15f0>
   4364c:	84c01526 	beq	r16,r19,436a4 <__svfscanf_r+0x8f0>
   43650:	9c21c83a 	sub	r16,r19,r16
   43654:	803e1726 	beq	r16,zero,42eb4 <__alt_data_end+0xfffd0eb4>
   43658:	da00a017 	ldw	r8,640(sp)
   4365c:	98000005 	stb	zero,0(r19)
   43660:	dc409c15 	stw	r17,624(sp)
   43664:	42000044 	addi	r8,r8,1
   43668:	da00a015 	stw	r8,640(sp)
   4366c:	9425883a 	add	r18,r18,r16
   43670:	a00d883a 	mov	r6,r20
   43674:	003e0b06 	br	42ea4 <__alt_data_end+0xfffd0ea4>
   43678:	017fff84 	movi	r5,-2
   4367c:	11439b1e 	bne	r2,r5,444ec <__svfscanf_r+0x1738>
   43680:	8821883a 	mov	r16,r17
   43684:	e0800117 	ldw	r2,4(fp)
   43688:	0082e516 	blt	zero,r2,44220 <__svfscanf_r+0x146c>
   4368c:	e00b883a 	mov	r5,fp
   43690:	b009883a 	mov	r4,r22
   43694:	0049a800 	call	49a80 <__srefill_r>
   43698:	1002e126 	beq	r2,zero,44220 <__svfscanf_r+0x146c>
   4369c:	dc409f17 	ldw	r17,636(sp)
   436a0:	8002e826 	beq	r16,zero,44244 <__svfscanf_r+0x1490>
   436a4:	da00a017 	ldw	r8,640(sp)
   436a8:	403e9c26 	beq	r8,zero,4311c <__alt_data_end+0xfffd111c>
   436ac:	e080030b 	ldhu	r2,12(fp)
   436b0:	1080100c 	andi	r2,r2,64
   436b4:	103e991e 	bne	r2,zero,4311c <__alt_data_end+0xfffd111c>
   436b8:	4005883a 	mov	r2,r8
   436bc:	003e9806 	br	43120 <__alt_data_end+0xfffd1120>
   436c0:	983f951e 	bne	r19,zero,43518 <__alt_data_end+0xfffd1518>
   436c4:	003fb806 	br	435a8 <__alt_data_end+0xfffd15a8>
   436c8:	da009c17 	ldw	r8,624(sp)
   436cc:	45000017 	ldw	r20,0(r8)
   436d0:	42000104 	addi	r8,r8,4
   436d4:	da009c15 	stw	r8,624(sp)
   436d8:	003f8e06 	br	43514 <__alt_data_end+0xfffd1514>
   436dc:	e00b883a 	mov	r5,fp
   436e0:	b009883a 	mov	r4,r22
   436e4:	0049a800 	call	49a80 <__srefill_r>
   436e8:	103f3826 	beq	r2,zero,433cc <__alt_data_end+0xfffd13cc>
   436ec:	003fed06 	br	436a4 <__alt_data_end+0xfffd16a4>
   436f0:	00ffff84 	movi	r3,-2
   436f4:	10c0071e 	bne	r2,r3,43714 <__svfscanf_r+0x960>
   436f8:	e0800117 	ldw	r2,4(fp)
   436fc:	8023883a 	mov	r17,r16
   43700:	00bf8516 	blt	zero,r2,43518 <__alt_data_end+0xfffd1518>
   43704:	003fa306 	br	43594 <__alt_data_end+0xfffd1594>
   43708:	9425883a 	add	r18,r18,r16
   4370c:	9cffffc4 	addi	r19,r19,-1
   43710:	003f9d06 	br	43588 <__alt_data_end+0xfffd1588>
   43714:	da009f17 	ldw	r8,636(sp)
   43718:	9425883a 	add	r18,r18,r16
   4371c:	9cffffc4 	addi	r19,r19,-1
   43720:	403f9826 	beq	r8,zero,43584 <__alt_data_end+0xfffd1584>
   43724:	003f9806 	br	43588 <__alt_data_end+0xfffd1588>
   43728:	8023883a 	mov	r17,r16
   4372c:	8821883a 	mov	r16,r17
   43730:	003fce06 	br	4366c <__alt_data_end+0xfffd166c>
   43734:	803f3d1e 	bne	r16,zero,4342c <__alt_data_end+0xfffd142c>
   43738:	003fda06 	br	436a4 <__alt_data_end+0xfffd16a4>
   4373c:	1827883a 	mov	r19,r3
   43740:	003fc306 	br	43650 <__alt_data_end+0xfffd1650>
   43744:	803fc91e 	bne	r16,zero,4366c <__alt_data_end+0xfffd166c>
   43748:	003dda06 	br	42eb4 <__alt_data_end+0xfffd0eb4>
   4374c:	da009c17 	ldw	r8,624(sp)
   43750:	df000015 	stw	fp,0(sp)
   43754:	980f883a 	mov	r7,r19
   43758:	41400017 	ldw	r5,0(r8)
   4375c:	01800044 	movi	r6,1
   43760:	b009883a 	mov	r4,r22
   43764:	00466640 	call	46664 <_fread_r>
   43768:	da009c17 	ldw	r8,624(sp)
   4376c:	40c00104 	addi	r3,r8,4
   43770:	103fcc26 	beq	r2,zero,436a4 <__alt_data_end+0xfffd16a4>
   43774:	da00a017 	ldw	r8,640(sp)
   43778:	dd009d17 	ldw	r20,628(sp)
   4377c:	90a5883a 	add	r18,r18,r2
   43780:	42000044 	addi	r8,r8,1
   43784:	da00a015 	stw	r8,640(sp)
   43788:	d8c09c15 	stw	r3,624(sp)
   4378c:	a00d883a 	mov	r6,r20
   43790:	003dc406 	br	42ea4 <__alt_data_end+0xfffd0ea4>
   43794:	e00b883a 	mov	r5,fp
   43798:	b009883a 	mov	r4,r22
   4379c:	0049a800 	call	49a80 <__srefill_r>
   437a0:	103e5226 	beq	r2,zero,430ec <__alt_data_end+0xfffd10ec>
   437a4:	003fbf06 	br	436a4 <__alt_data_end+0xfffd16a4>
   437a8:	a0800083 	ldbu	r2,2(r20)
   437ac:	8c400094 	ori	r17,r17,2
   437b0:	a5000084 	addi	r20,r20,2
   437b4:	10c03fcc 	andi	r3,r2,255
   437b8:	003dc706 	br	42ed8 <__alt_data_end+0xfffd0ed8>
   437bc:	e0800117 	ldw	r2,4(fp)
   437c0:	88e2b03a 	or	r17,r17,r3
   437c4:	00bef716 	blt	zero,r2,433a4 <__alt_data_end+0xfffd13a4>
   437c8:	003e6f06 	br	43188 <__alt_data_end+0xfffd1188>
   437cc:	8880004c 	andi	r2,r17,1
   437d0:	10000b1e 	bne	r2,zero,43800 <__svfscanf_r+0xa4c>
   437d4:	8c40008c 	andi	r17,r17,2
   437d8:	88000926 	beq	r17,zero,43800 <__svfscanf_r+0xa4c>
   437dc:	da009c17 	ldw	r8,624(sp)
   437e0:	9007d7fa 	srai	r3,r18,31
   437e4:	dd009d17 	ldw	r20,628(sp)
   437e8:	40800017 	ldw	r2,0(r8)
   437ec:	42000104 	addi	r8,r8,4
   437f0:	da009c15 	stw	r8,624(sp)
   437f4:	14800015 	stw	r18,0(r2)
   437f8:	10c00115 	stw	r3,4(r2)
   437fc:	003da806 	br	42ea0 <__alt_data_end+0xfffd0ea0>
   43800:	da009c17 	ldw	r8,624(sp)
   43804:	dd009d17 	ldw	r20,628(sp)
   43808:	40800017 	ldw	r2,0(r8)
   4380c:	42000104 	addi	r8,r8,4
   43810:	da009c15 	stw	r8,624(sp)
   43814:	14800015 	stw	r18,0(r2)
   43818:	003da106 	br	42ea0 <__alt_data_end+0xfffd0ea0>
   4381c:	e00b883a 	mov	r5,fp
   43820:	b009883a 	mov	r4,r22
   43824:	0049a800 	call	49a80 <__srefill_r>
   43828:	103f9e1e 	bne	r2,zero,436a4 <__alt_data_end+0xfffd16a4>
   4382c:	b9c00017 	ldw	r7,0(r23)
   43830:	05000104 	movi	r20,4
   43834:	003e6306 	br	431c4 <__alt_data_end+0xfffd11c4>
   43838:	e00b883a 	mov	r5,fp
   4383c:	b009883a 	mov	r4,r22
   43840:	0049a800 	call	49a80 <__srefill_r>
   43844:	103f971e 	bne	r2,zero,436a4 <__alt_data_end+0xfffd16a4>
   43848:	b9c00017 	ldw	r7,0(r23)
   4384c:	003e5706 	br	431ac <__alt_data_end+0xfffd11ac>
   43850:	e00b883a 	mov	r5,fp
   43854:	b009883a 	mov	r4,r22
   43858:	0049a800 	call	49a80 <__srefill_r>
   4385c:	103f911e 	bne	r2,zero,436a4 <__alt_data_end+0xfffd16a4>
   43860:	b9c00017 	ldw	r7,0(r23)
   43864:	05000084 	movi	r20,2
   43868:	003e5606 	br	431c4 <__alt_data_end+0xfffd11c4>
   4386c:	e00b883a 	mov	r5,fp
   43870:	b009883a 	mov	r4,r22
   43874:	0049a800 	call	49a80 <__srefill_r>
   43878:	103ef726 	beq	r2,zero,43458 <__alt_data_end+0xfffd1458>
   4387c:	003f8906 	br	436a4 <__alt_data_end+0xfffd16a4>
   43880:	e00b883a 	mov	r5,fp
   43884:	b009883a 	mov	r4,r22
   43888:	0049a800 	call	49a80 <__srefill_r>
   4388c:	103f851e 	bne	r2,zero,436a4 <__alt_data_end+0xfffd16a4>
   43890:	b9c00017 	ldw	r7,0(r23)
   43894:	003f0f06 	br	434d4 <__alt_data_end+0xfffd14d4>
   43898:	014000c4 	movi	r5,3
   4389c:	a1414a26 	beq	r20,r5,43dc8 <__svfscanf_r+0x1014>
   438a0:	01000104 	movi	r4,4
   438a4:	a101f11e 	bne	r20,r4,4406c <__svfscanf_r+0x12b8>
   438a8:	b009883a 	mov	r4,r22
   438ac:	00474180 	call	47418 <_localeconv_r>
   438b0:	10800017 	ldw	r2,0(r2)
   438b4:	98ffffc4 	addi	r3,r19,-1
   438b8:	d880a315 	stw	r2,652(sp)
   438bc:	00805704 	movi	r2,348
   438c0:	10c21e2e 	bgeu	r2,r3,4413c <__svfscanf_r+0x1388>
   438c4:	9cffa8c4 	addi	r19,r19,-349
   438c8:	dcc0a215 	stw	r19,648(sp)
   438cc:	04c05744 	movi	r19,349
   438d0:	8d01e014 	ori	r20,r17,1920
   438d4:	0023883a 	mov	r17,zero
   438d8:	dc000104 	addi	r16,sp,4
   438dc:	8805883a 	mov	r2,r17
   438e0:	0019883a 	mov	r12,zero
   438e4:	8023883a 	mov	r17,r16
   438e8:	b007883a 	mov	r3,r22
   438ec:	9821883a 	mov	r16,r19
   438f0:	002b883a 	mov	r21,zero
   438f4:	d800a515 	stw	zero,660(sp)
   438f8:	d800a415 	stw	zero,656(sp)
   438fc:	d8009f15 	stw	zero,636(sp)
   43900:	01c01384 	movi	r7,78
   43904:	602d883a 	mov	r22,r12
   43908:	1027883a 	mov	r19,r2
   4390c:	e1000017 	ldw	r4,0(fp)
   43910:	21400003 	ldbu	r5,0(r4)
   43914:	28bff544 	addi	r2,r5,-43
   43918:	10803fcc 	andi	r2,r2,255
   4391c:	38810e36 	bltu	r7,r2,43d58 <__svfscanf_r+0xfa4>
   43920:	100490ba 	slli	r2,r2,2
   43924:	01800134 	movhi	r6,4
   43928:	318e4e04 	addi	r6,r6,14648
   4392c:	1185883a 	add	r2,r2,r6
   43930:	10800017 	ldw	r2,0(r2)
   43934:	1000683a 	jmp	r2
   43938:	00043c30 	cmpltui	zero,zero,4336
   4393c:	00043d58 	cmpnei	zero,zero,4341
   43940:	00043c30 	cmpltui	zero,zero,4336
   43944:	00043d58 	cmpnei	zero,zero,4341
   43948:	00043d58 	cmpnei	zero,zero,4341
   4394c:	00043c04 	movi	zero,4336
   43950:	00043a74 	movhi	zero,4329
   43954:	00043a74 	movhi	zero,4329
   43958:	00043a74 	movhi	zero,4329
   4395c:	00043a74 	movhi	zero,4329
   43960:	00043a74 	movhi	zero,4329
   43964:	00043a74 	movhi	zero,4329
   43968:	00043a74 	movhi	zero,4329
   4396c:	00043a74 	movhi	zero,4329
   43970:	00043a74 	movhi	zero,4329
   43974:	00043d58 	cmpnei	zero,zero,4341
   43978:	00043d58 	cmpnei	zero,zero,4341
   4397c:	00043d58 	cmpnei	zero,zero,4341
   43980:	00043d58 	cmpnei	zero,zero,4341
   43984:	00043d58 	cmpnei	zero,zero,4341
   43988:	00043d58 	cmpnei	zero,zero,4341
   4398c:	00043d58 	cmpnei	zero,zero,4341
   43990:	00043d48 	cmpgei	zero,zero,4341
   43994:	00043d58 	cmpnei	zero,zero,4341
   43998:	00043d58 	cmpnei	zero,zero,4341
   4399c:	00043d58 	cmpnei	zero,zero,4341
   439a0:	00043d04 	movi	zero,4340
   439a4:	00043ce8 	cmpgeui	zero,zero,4339
   439a8:	00043d58 	cmpnei	zero,zero,4341
   439ac:	00043d58 	cmpnei	zero,zero,4341
   439b0:	00043cb4 	movhi	zero,4338
   439b4:	00043d58 	cmpnei	zero,zero,4341
   439b8:	00043d58 	cmpnei	zero,zero,4341
   439bc:	00043d58 	cmpnei	zero,zero,4341
   439c0:	00043d58 	cmpnei	zero,zero,4341
   439c4:	00043c7c 	xorhi	zero,zero,4337
   439c8:	00043d58 	cmpnei	zero,zero,4341
   439cc:	00043d58 	cmpnei	zero,zero,4341
   439d0:	00043d58 	cmpnei	zero,zero,4341
   439d4:	00043d58 	cmpnei	zero,zero,4341
   439d8:	00043d58 	cmpnei	zero,zero,4341
   439dc:	00043c60 	cmpeqi	zero,zero,4337
   439e0:	00043d58 	cmpnei	zero,zero,4341
   439e4:	00043d58 	cmpnei	zero,zero,4341
   439e8:	00043d58 	cmpnei	zero,zero,4341
   439ec:	00043d58 	cmpnei	zero,zero,4341
   439f0:	00043c44 	movi	zero,4337
   439f4:	00043d58 	cmpnei	zero,zero,4341
   439f8:	00043d58 	cmpnei	zero,zero,4341
   439fc:	00043d58 	cmpnei	zero,zero,4341
   43a00:	00043d58 	cmpnei	zero,zero,4341
   43a04:	00043d58 	cmpnei	zero,zero,4341
   43a08:	00043d58 	cmpnei	zero,zero,4341
   43a0c:	00043d58 	cmpnei	zero,zero,4341
   43a10:	00043d48 	cmpgei	zero,zero,4341
   43a14:	00043d58 	cmpnei	zero,zero,4341
   43a18:	00043d58 	cmpnei	zero,zero,4341
   43a1c:	00043d58 	cmpnei	zero,zero,4341
   43a20:	00043d04 	movi	zero,4340
   43a24:	00043ce8 	cmpgeui	zero,zero,4339
   43a28:	00043d58 	cmpnei	zero,zero,4341
   43a2c:	00043d58 	cmpnei	zero,zero,4341
   43a30:	00043cb4 	movhi	zero,4338
   43a34:	00043d58 	cmpnei	zero,zero,4341
   43a38:	00043d58 	cmpnei	zero,zero,4341
   43a3c:	00043d58 	cmpnei	zero,zero,4341
   43a40:	00043d58 	cmpnei	zero,zero,4341
   43a44:	00043c7c 	xorhi	zero,zero,4337
   43a48:	00043d58 	cmpnei	zero,zero,4341
   43a4c:	00043d58 	cmpnei	zero,zero,4341
   43a50:	00043d58 	cmpnei	zero,zero,4341
   43a54:	00043d58 	cmpnei	zero,zero,4341
   43a58:	00043d58 	cmpnei	zero,zero,4341
   43a5c:	00043c60 	cmpeqi	zero,zero,4337
   43a60:	00043d58 	cmpnei	zero,zero,4341
   43a64:	00043d58 	cmpnei	zero,zero,4341
   43a68:	00043d58 	cmpnei	zero,zero,4341
   43a6c:	00043d58 	cmpnei	zero,zero,4341
   43a70:	00043c44 	movi	zero,4337
   43a74:	a8803fcc 	andi	r2,r21,255
   43a78:	1080201c 	xori	r2,r2,128
   43a7c:	10bfe004 	addi	r2,r2,-128
   43a80:	b085883a 	add	r2,r22,r2
   43a84:	10000d1e 	bne	r2,zero,43abc <__svfscanf_r+0xd08>
   43a88:	00bf9fc4 	movi	r2,-385
   43a8c:	a0a8703a 	and	r20,r20,r2
   43a90:	89400005 	stb	r5,0(r17)
   43a94:	8c400044 	addi	r17,r17,1
   43a98:	e0800117 	ldw	r2,4(fp)
   43a9c:	843fffc4 	addi	r16,r16,-1
   43aa0:	94800044 	addi	r18,r18,1
   43aa4:	10bfffc4 	addi	r2,r2,-1
   43aa8:	e0800115 	stw	r2,4(fp)
   43aac:	0080b40e 	bge	zero,r2,43d80 <__svfscanf_r+0xfcc>
   43ab0:	21000044 	addi	r4,r4,1
   43ab4:	e1000015 	stw	r4,0(fp)
   43ab8:	803f941e 	bne	r16,zero,4390c <__alt_data_end+0xfffd190c>
   43abc:	8821883a 	mov	r16,r17
   43ac0:	b019883a 	mov	r12,r22
   43ac4:	9823883a 	mov	r17,r19
   43ac8:	182d883a 	mov	r22,r3
   43acc:	9801961e 	bne	r19,zero,44128 <__svfscanf_r+0x1374>
   43ad0:	633fffc4 	addi	r12,r12,-1
   43ad4:	00800044 	movi	r2,1
   43ad8:	1302882e 	bgeu	r2,r12,444fc <__svfscanf_r+0x1748>
   43adc:	a8803fcc 	andi	r2,r21,255
   43ae0:	1080201c 	xori	r2,r2,128
   43ae4:	10bfe004 	addi	r2,r2,-128
   43ae8:	113fffc4 	addi	r4,r2,-1
   43aec:	01400184 	movi	r5,6
   43af0:	29001136 	bltu	r5,r4,43b38 <__svfscanf_r+0xd84>
   43af4:	01000084 	movi	r4,2
   43af8:	2082900e 	bge	r4,r2,4453c <__svfscanf_r+0x1788>
   43afc:	00c000c4 	movi	r3,3
   43b00:	10c00d26 	beq	r2,r3,43b38 <__svfscanf_r+0xd84>
   43b04:	9425c83a 	sub	r18,r18,r16
   43b08:	1827883a 	mov	r19,r3
   43b0c:	843fffc4 	addi	r16,r16,-1
   43b10:	81400007 	ldb	r5,0(r16)
   43b14:	e00d883a 	mov	r6,fp
   43b18:	b009883a 	mov	r4,r22
   43b1c:	004e5d00 	call	4e5d0 <_ungetc_r>
   43b20:	a8bfffc4 	addi	r2,r21,-1
   43b24:	10c03fcc 	andi	r3,r2,255
   43b28:	8493883a 	add	r9,r16,r18
   43b2c:	102b883a 	mov	r21,r2
   43b30:	98fff636 	bltu	r19,r3,43b0c <__alt_data_end+0xfffd1b0c>
   43b34:	4825883a 	mov	r18,r9
   43b38:	a080400c 	andi	r2,r20,256
   43b3c:	10001426 	beq	r2,zero,43b90 <__svfscanf_r+0xddc>
   43b40:	a081000c 	andi	r2,r20,1024
   43b44:	1002571e 	bne	r2,zero,444a4 <__svfscanf_r+0x16f0>
   43b48:	817fffc7 	ldb	r5,-1(r16)
   43b4c:	00801944 	movi	r2,101
   43b50:	84ffffc4 	addi	r19,r16,-1
   43b54:	957fffc4 	addi	r21,r18,-1
   43b58:	28800826 	beq	r5,r2,43b7c <__svfscanf_r+0xdc8>
   43b5c:	00801144 	movi	r2,69
   43b60:	28800626 	beq	r5,r2,43b7c <__svfscanf_r+0xdc8>
   43b64:	e00d883a 	mov	r6,fp
   43b68:	b009883a 	mov	r4,r22
   43b6c:	004e5d00 	call	4e5d0 <_ungetc_r>
   43b70:	817fff87 	ldb	r5,-2(r16)
   43b74:	84ffff84 	addi	r19,r16,-2
   43b78:	957fff84 	addi	r21,r18,-2
   43b7c:	e00d883a 	mov	r6,fp
   43b80:	b009883a 	mov	r4,r22
   43b84:	004e5d00 	call	4e5d0 <_ungetc_r>
   43b88:	a825883a 	mov	r18,r21
   43b8c:	9821883a 	mov	r16,r19
   43b90:	a080040c 	andi	r2,r20,16
   43b94:	103e891e 	bne	r2,zero,435bc <__alt_data_end+0xfffd15bc>
   43b98:	80000005 	stb	zero,0(r16)
   43b9c:	a081800c 	andi	r2,r20,1536
   43ba0:	01010004 	movi	r4,1024
   43ba4:	1101dd26 	beq	r2,r4,4431c <__svfscanf_r+0x1568>
   43ba8:	da00a417 	ldw	r8,656(sp)
   43bac:	4001e71e 	bne	r8,zero,4434c <__svfscanf_r+0x1598>
   43bb0:	000d883a 	mov	r6,zero
   43bb4:	d9400104 	addi	r5,sp,4
   43bb8:	b009883a 	mov	r4,r22
   43bbc:	004a1340 	call	4a134 <_strtod_r>
   43bc0:	1021883a 	mov	r16,r2
   43bc4:	a080004c 	andi	r2,r20,1
   43bc8:	1000021e 	bne	r2,zero,43bd4 <__svfscanf_r+0xe20>
   43bcc:	a2c0008c 	andi	r11,r20,2
   43bd0:	5801e826 	beq	r11,zero,44374 <__svfscanf_r+0x15c0>
   43bd4:	da009c17 	ldw	r8,624(sp)
   43bd8:	40800017 	ldw	r2,0(r8)
   43bdc:	42000104 	addi	r8,r8,4
   43be0:	da009c15 	stw	r8,624(sp)
   43be4:	14000015 	stw	r16,0(r2)
   43be8:	10c00115 	stw	r3,4(r2)
   43bec:	da00a017 	ldw	r8,640(sp)
   43bf0:	dd009d17 	ldw	r20,628(sp)
   43bf4:	42000044 	addi	r8,r8,1
   43bf8:	da00a015 	stw	r8,640(sp)
   43bfc:	a00d883a 	mov	r6,r20
   43c00:	003ca806 	br	42ea4 <__alt_data_end+0xfffd0ea4>
   43c04:	a080400c 	andi	r2,r20,256
   43c08:	103f9a26 	beq	r2,zero,43a74 <__alt_data_end+0xfffd1a74>
   43c0c:	da00a217 	ldw	r8,648(sp)
   43c10:	00bfdfc4 	movi	r2,-129
   43c14:	a0a8703a 	and	r20,r20,r2
   43c18:	9cc00044 	addi	r19,r19,1
   43c1c:	403f9e26 	beq	r8,zero,43a98 <__alt_data_end+0xfffd1a98>
   43c20:	423fffc4 	addi	r8,r8,-1
   43c24:	da00a215 	stw	r8,648(sp)
   43c28:	84000044 	addi	r16,r16,1
   43c2c:	003f9a06 	br	43a98 <__alt_data_end+0xfffd1a98>
   43c30:	a080200c 	andi	r2,r20,128
   43c34:	103fa126 	beq	r2,zero,43abc <__alt_data_end+0xfffd1abc>
   43c38:	00bfdfc4 	movi	r2,-129
   43c3c:	a0a8703a 	and	r20,r20,r2
   43c40:	003f9306 	br	43a90 <__alt_data_end+0xfffd1a90>
   43c44:	a8803fcc 	andi	r2,r21,255
   43c48:	1080201c 	xori	r2,r2,128
   43c4c:	10bfe004 	addi	r2,r2,-128
   43c50:	020001c4 	movi	r8,7
   43c54:	123f991e 	bne	r2,r8,43abc <__alt_data_end+0xfffd1abc>
   43c58:	05400204 	movi	r21,8
   43c5c:	003f8c06 	br	43a90 <__alt_data_end+0xfffd1a90>
   43c60:	a8803fcc 	andi	r2,r21,255
   43c64:	1080201c 	xori	r2,r2,128
   43c68:	10bfe004 	addi	r2,r2,-128
   43c6c:	01800184 	movi	r6,6
   43c70:	11bf921e 	bne	r2,r6,43abc <__alt_data_end+0xfffd1abc>
   43c74:	054001c4 	movi	r21,7
   43c78:	003f8506 	br	43a90 <__alt_data_end+0xfffd1a90>
   43c7c:	b000491e 	bne	r22,zero,43da4 <__svfscanf_r+0xff0>
   43c80:	9800031e 	bne	r19,zero,43c90 <__svfscanf_r+0xedc>
   43c84:	a081c00c 	andi	r2,r20,1792
   43c88:	0181c004 	movi	r6,1792
   43c8c:	11819f26 	beq	r2,r6,4430c <__svfscanf_r+0x1558>
   43c90:	a8803fcc 	andi	r2,r21,255
   43c94:	1080201c 	xori	r2,r2,128
   43c98:	10bfe004 	addi	r2,r2,-128
   43c9c:	01800044 	movi	r6,1
   43ca0:	11800226 	beq	r2,r6,43cac <__svfscanf_r+0xef8>
   43ca4:	01800104 	movi	r6,4
   43ca8:	11bf841e 	bne	r2,r6,43abc <__alt_data_end+0xfffd1abc>
   43cac:	ad400044 	addi	r21,r21,1
   43cb0:	003f7706 	br	43a90 <__alt_data_end+0xfffd1a90>
   43cb4:	a8803fcc 	andi	r2,r21,255
   43cb8:	1080201c 	xori	r2,r2,128
   43cbc:	10bfe004 	addi	r2,r2,-128
   43cc0:	10003c1e 	bne	r2,zero,43db4 <__svfscanf_r+0x1000>
   43cc4:	9801141e 	bne	r19,zero,44118 <__svfscanf_r+0x1364>
   43cc8:	a081c00c 	andi	r2,r20,1792
   43ccc:	0181c004 	movi	r6,1792
   43cd0:	11818226 	beq	r2,r6,442dc <__svfscanf_r+0x1528>
   43cd4:	8821883a 	mov	r16,r17
   43cd8:	b019883a 	mov	r12,r22
   43cdc:	9823883a 	mov	r17,r19
   43ce0:	182d883a 	mov	r22,r3
   43ce4:	003f7a06 	br	43ad0 <__alt_data_end+0xfffd1ad0>
   43ce8:	a8803fcc 	andi	r2,r21,255
   43cec:	1080201c 	xori	r2,r2,128
   43cf0:	10bfe004 	addi	r2,r2,-128
   43cf4:	01800084 	movi	r6,2
   43cf8:	11bf701e 	bne	r2,r6,43abc <__alt_data_end+0xfffd1abc>
   43cfc:	054000c4 	movi	r21,3
   43d00:	003f6306 	br	43a90 <__alt_data_end+0xfffd1a90>
   43d04:	a081400c 	andi	r2,r20,1280
   43d08:	01810004 	movi	r6,1024
   43d0c:	11800326 	beq	r2,r6,43d1c <__svfscanf_r+0xf68>
   43d10:	a184703a 	and	r2,r20,r6
   43d14:	103f6926 	beq	r2,zero,43abc <__alt_data_end+0xfffd1abc>
   43d18:	983fee26 	beq	r19,zero,43cd4 <__alt_data_end+0xfffd1cd4>
   43d1c:	a080800c 	andi	r2,r20,512
   43d20:	1000041e 	bne	r2,zero,43d34 <__svfscanf_r+0xf80>
   43d24:	da009f17 	ldw	r8,636(sp)
   43d28:	dc40a515 	stw	r17,660(sp)
   43d2c:	9a27c83a 	sub	r19,r19,r8
   43d30:	dcc0a415 	stw	r19,656(sp)
   43d34:	00be1fc4 	movi	r2,-1921
   43d38:	a0a8703a 	and	r20,r20,r2
   43d3c:	a5006014 	ori	r20,r20,384
   43d40:	0027883a 	mov	r19,zero
   43d44:	003f5206 	br	43a90 <__alt_data_end+0xfffd1a90>
   43d48:	00800044 	movi	r2,1
   43d4c:	b0bf5b1e 	bne	r22,r2,43abc <__alt_data_end+0xfffd1abc>
   43d50:	05800084 	movi	r22,2
   43d54:	003f4e06 	br	43a90 <__alt_data_end+0xfffd1a90>
   43d58:	d980a317 	ldw	r6,652(sp)
   43d5c:	30800003 	ldbu	r2,0(r6)
   43d60:	29803fcc 	andi	r6,r5,255
   43d64:	30bf551e 	bne	r6,r2,43abc <__alt_data_end+0xfffd1abc>
   43d68:	a080800c 	andi	r2,r20,512
   43d6c:	103f5326 	beq	r2,zero,43abc <__alt_data_end+0xfffd1abc>
   43d70:	023f5fc4 	movi	r8,-641
   43d74:	a228703a 	and	r20,r20,r8
   43d78:	dcc09f15 	stw	r19,636(sp)
   43d7c:	003f4406 	br	43a90 <__alt_data_end+0xfffd1a90>
   43d80:	1809883a 	mov	r4,r3
   43d84:	e00b883a 	mov	r5,fp
   43d88:	d8c0a615 	stw	r3,664(sp)
   43d8c:	d9c0aa15 	stw	r7,680(sp)
   43d90:	0049a800 	call	49a80 <__srefill_r>
   43d94:	d8c0a617 	ldw	r3,664(sp)
   43d98:	d9c0aa17 	ldw	r7,680(sp)
   43d9c:	103f4626 	beq	r2,zero,43ab8 <__alt_data_end+0xfffd1ab8>
   43da0:	003f4606 	br	43abc <__alt_data_end+0xfffd1abc>
   43da4:	00800084 	movi	r2,2
   43da8:	b0bfb91e 	bne	r22,r2,43c90 <__alt_data_end+0xfffd1c90>
   43dac:	058000c4 	movi	r22,3
   43db0:	003f3706 	br	43a90 <__alt_data_end+0xfffd1a90>
   43db4:	018000c4 	movi	r6,3
   43db8:	11bfbc26 	beq	r2,r6,43cac <__alt_data_end+0xfffd1cac>
   43dbc:	01800144 	movi	r6,5
   43dc0:	11bfba26 	beq	r2,r6,43cac <__alt_data_end+0xfffd1cac>
   43dc4:	003f3d06 	br	43abc <__alt_data_end+0xfffd1abc>
   43dc8:	98bfffc4 	addi	r2,r19,-1
   43dcc:	01405704 	movi	r5,348
   43dd0:	2880d82e 	bgeu	r5,r2,44134 <__svfscanf_r+0x1380>
   43dd4:	99ffa8c4 	addi	r7,r19,-349
   43dd8:	04c05744 	movi	r19,349
   43ddc:	8c436014 	ori	r17,r17,3456
   43de0:	9013883a 	mov	r9,r18
   43de4:	8825883a 	mov	r18,r17
   43de8:	dc409e17 	ldw	r17,632(sp)
   43dec:	0029883a 	mov	r20,zero
   43df0:	dc000104 	addi	r16,sp,4
   43df4:	05401344 	movi	r21,77
   43df8:	02c08004 	movi	r11,512
   43dfc:	01bf7fc4 	movi	r6,-513
   43e00:	023fdfc4 	movi	r8,-129
   43e04:	20bff544 	addi	r2,r4,-43
   43e08:	10803fcc 	andi	r2,r2,255
   43e0c:	a8807236 	bltu	r21,r2,43fd8 <__svfscanf_r+0x1224>
   43e10:	100490ba 	slli	r2,r2,2
   43e14:	01400134 	movhi	r5,4
   43e18:	294f8a04 	addi	r5,r5,15912
   43e1c:	1145883a 	add	r2,r2,r5
   43e20:	10800017 	ldw	r2,0(r2)
   43e24:	1000683a 	jmp	r2
   43e28:	0004405c 	xori	zero,zero,4353
   43e2c:	00043fd8 	cmpnei	zero,zero,4351
   43e30:	0004405c 	xori	zero,zero,4353
   43e34:	00043fd8 	cmpnei	zero,zero,4351
   43e38:	00043fd8 	cmpnei	zero,zero,4351
   43e3c:	00044034 	movhi	zero,4352
   43e40:	00044014 	movui	zero,4352
   43e44:	00044014 	movui	zero,4352
   43e48:	00044014 	movui	zero,4352
   43e4c:	00044014 	movui	zero,4352
   43e50:	00044014 	movui	zero,4352
   43e54:	00044014 	movui	zero,4352
   43e58:	00044014 	movui	zero,4352
   43e5c:	00043fbc 	xorhi	zero,zero,4350
   43e60:	00043fbc 	xorhi	zero,zero,4350
   43e64:	00043fd8 	cmpnei	zero,zero,4351
   43e68:	00043fd8 	cmpnei	zero,zero,4351
   43e6c:	00043fd8 	cmpnei	zero,zero,4351
   43e70:	00043fd8 	cmpnei	zero,zero,4351
   43e74:	00043fd8 	cmpnei	zero,zero,4351
   43e78:	00043fd8 	cmpnei	zero,zero,4351
   43e7c:	00043fd8 	cmpnei	zero,zero,4351
   43e80:	00043fa8 	cmpgeui	zero,zero,4350
   43e84:	00043fa8 	cmpgeui	zero,zero,4350
   43e88:	00043fa8 	cmpgeui	zero,zero,4350
   43e8c:	00043fa8 	cmpgeui	zero,zero,4350
   43e90:	00043fa8 	cmpgeui	zero,zero,4350
   43e94:	00043fa8 	cmpgeui	zero,zero,4350
   43e98:	00043fd8 	cmpnei	zero,zero,4351
   43e9c:	00043fd8 	cmpnei	zero,zero,4351
   43ea0:	00043fd8 	cmpnei	zero,zero,4351
   43ea4:	00043fd8 	cmpnei	zero,zero,4351
   43ea8:	00043fd8 	cmpnei	zero,zero,4351
   43eac:	00043fd8 	cmpnei	zero,zero,4351
   43eb0:	00043fd8 	cmpnei	zero,zero,4351
   43eb4:	00043fd8 	cmpnei	zero,zero,4351
   43eb8:	00043fd8 	cmpnei	zero,zero,4351
   43ebc:	00043fd8 	cmpnei	zero,zero,4351
   43ec0:	00043fd8 	cmpnei	zero,zero,4351
   43ec4:	00043fd8 	cmpnei	zero,zero,4351
   43ec8:	00043fd8 	cmpnei	zero,zero,4351
   43ecc:	00043fd8 	cmpnei	zero,zero,4351
   43ed0:	00043fd8 	cmpnei	zero,zero,4351
   43ed4:	00043fd8 	cmpnei	zero,zero,4351
   43ed8:	00043fd8 	cmpnei	zero,zero,4351
   43edc:	00043f60 	cmpeqi	zero,zero,4349
   43ee0:	00043fd8 	cmpnei	zero,zero,4351
   43ee4:	00043fd8 	cmpnei	zero,zero,4351
   43ee8:	00043fd8 	cmpnei	zero,zero,4351
   43eec:	00043fd8 	cmpnei	zero,zero,4351
   43ef0:	00043fd8 	cmpnei	zero,zero,4351
   43ef4:	00043fd8 	cmpnei	zero,zero,4351
   43ef8:	00043fd8 	cmpnei	zero,zero,4351
   43efc:	00043fd8 	cmpnei	zero,zero,4351
   43f00:	00043fa8 	cmpgeui	zero,zero,4350
   43f04:	00043fa8 	cmpgeui	zero,zero,4350
   43f08:	00043fa8 	cmpgeui	zero,zero,4350
   43f0c:	00043fa8 	cmpgeui	zero,zero,4350
   43f10:	00043fa8 	cmpgeui	zero,zero,4350
   43f14:	00043fa8 	cmpgeui	zero,zero,4350
   43f18:	00043fd8 	cmpnei	zero,zero,4351
   43f1c:	00043fd8 	cmpnei	zero,zero,4351
   43f20:	00043fd8 	cmpnei	zero,zero,4351
   43f24:	00043fd8 	cmpnei	zero,zero,4351
   43f28:	00043fd8 	cmpnei	zero,zero,4351
   43f2c:	00043fd8 	cmpnei	zero,zero,4351
   43f30:	00043fd8 	cmpnei	zero,zero,4351
   43f34:	00043fd8 	cmpnei	zero,zero,4351
   43f38:	00043fd8 	cmpnei	zero,zero,4351
   43f3c:	00043fd8 	cmpnei	zero,zero,4351
   43f40:	00043fd8 	cmpnei	zero,zero,4351
   43f44:	00043fd8 	cmpnei	zero,zero,4351
   43f48:	00043fd8 	cmpnei	zero,zero,4351
   43f4c:	00043fd8 	cmpnei	zero,zero,4351
   43f50:	00043fd8 	cmpnei	zero,zero,4351
   43f54:	00043fd8 	cmpnei	zero,zero,4351
   43f58:	00043fd8 	cmpnei	zero,zero,4351
   43f5c:	00043f60 	cmpeqi	zero,zero,4349
   43f60:	9081800c 	andi	r2,r18,1536
   43f64:	12c01c1e 	bne	r2,r11,43fd8 <__svfscanf_r+0x1224>
   43f68:	91a4703a 	and	r18,r18,r6
   43f6c:	94814014 	ori	r18,r18,1280
   43f70:	04400404 	movi	r17,16
   43f74:	81000005 	stb	r4,0(r16)
   43f78:	84000044 	addi	r16,r16,1
   43f7c:	e0800117 	ldw	r2,4(fp)
   43f80:	10bfffc4 	addi	r2,r2,-1
   43f84:	e0800115 	stw	r2,4(fp)
   43f88:	0080540e 	bge	zero,r2,440dc <__svfscanf_r+0x1328>
   43f8c:	18c00044 	addi	r3,r3,1
   43f90:	e0c00015 	stw	r3,0(fp)
   43f94:	9cffffc4 	addi	r19,r19,-1
   43f98:	98000f26 	beq	r19,zero,43fd8 <__svfscanf_r+0x1224>
   43f9c:	e0c00017 	ldw	r3,0(fp)
   43fa0:	19000003 	ldbu	r4,0(r3)
   43fa4:	003f9706 	br	43e04 <__alt_data_end+0xfffd1e04>
   43fa8:	00800284 	movi	r2,10
   43fac:	14400a0e 	bge	r2,r17,43fd8 <__svfscanf_r+0x1224>
   43fb0:	00bd1fc4 	movi	r2,-2945
   43fb4:	90a4703a 	and	r18,r18,r2
   43fb8:	003fee06 	br	43f74 <__alt_data_end+0xfffd1f74>
   43fbc:	01400174 	movhi	r5,5
   43fc0:	8c63883a 	add	r17,r17,r17
   43fc4:	295bdf84 	addi	r5,r5,28542
   43fc8:	2c45883a 	add	r2,r5,r17
   43fcc:	1440000f 	ldh	r17,0(r2)
   43fd0:	00800204 	movi	r2,8
   43fd4:	147ff616 	blt	r2,r17,43fb0 <__alt_data_end+0xfffd1fb0>
   43fd8:	dc409e15 	stw	r17,632(sp)
   43fdc:	9023883a 	mov	r17,r18
   43fe0:	8880400c 	andi	r2,r17,256
   43fe4:	4825883a 	mov	r18,r9
   43fe8:	10000426 	beq	r2,zero,43ffc <__svfscanf_r+0x1248>
   43fec:	d9800104 	addi	r6,sp,4
   43ff0:	3400be36 	bltu	r6,r16,442ec <__svfscanf_r+0x1538>
   43ff4:	da000104 	addi	r8,sp,4
   43ff8:	443bae26 	beq	r8,r16,42eb4 <__alt_data_end+0xfffd0eb4>
   43ffc:	8880040c 	andi	r2,r17,16
   44000:	10009326 	beq	r2,zero,44250 <__svfscanf_r+0x149c>
   44004:	d8800104 	addi	r2,sp,4
   44008:	80a1c83a 	sub	r16,r16,r2
   4400c:	8521883a 	add	r16,r16,r20
   44010:	003d0606 	br	4342c <__alt_data_end+0xfffd142c>
   44014:	01400174 	movhi	r5,5
   44018:	8c63883a 	add	r17,r17,r17
   4401c:	295bdf84 	addi	r5,r5,28542
   44020:	2c45883a 	add	r2,r5,r17
   44024:	1440000f 	ldh	r17,0(r2)
   44028:	00bd1fc4 	movi	r2,-2945
   4402c:	90a4703a 	and	r18,r18,r2
   44030:	003fd006 	br	43f74 <__alt_data_end+0xfffd1f74>
   44034:	9082000c 	andi	r2,r18,2048
   44038:	103fce26 	beq	r2,zero,43f74 <__alt_data_end+0xfffd1f74>
   4403c:	8800021e 	bne	r17,zero,44048 <__svfscanf_r+0x1294>
   44040:	94808014 	ori	r18,r18,512
   44044:	04400204 	movi	r17,8
   44048:	9081000c 	andi	r2,r18,1024
   4404c:	10009426 	beq	r2,zero,442a0 <__svfscanf_r+0x14ec>
   44050:	00be9fc4 	movi	r2,-1409
   44054:	90a4703a 	and	r18,r18,r2
   44058:	003fc606 	br	43f74 <__alt_data_end+0xfffd1f74>
   4405c:	9080200c 	andi	r2,r18,128
   44060:	103fdd26 	beq	r2,zero,43fd8 <__alt_data_end+0xfffd1fd8>
   44064:	9224703a 	and	r18,r18,r8
   44068:	003fc206 	br	43f74 <__alt_data_end+0xfffd1f74>
   4406c:	9800011e 	bne	r19,zero,44074 <__svfscanf_r+0x12c0>
   44070:	04ffffc4 	movi	r19,-1
   44074:	8900004c 	andi	r4,r17,1
   44078:	20005b1e 	bne	r4,zero,441e8 <__svfscanf_r+0x1434>
   4407c:	8c40040c 	andi	r17,r17,16
   44080:	88003026 	beq	r17,zero,44144 <__svfscanf_r+0x1390>
   44084:	0021883a 	mov	r16,zero
   44088:	00000306 	br	44098 <__svfscanf_r+0x12e4>
   4408c:	18800003 	ldbu	r2,0(r3)
   44090:	3885883a 	add	r2,r7,r2
   44094:	10800043 	ldbu	r2,1(r2)
   44098:	1080020c 	andi	r2,r2,8
   4409c:	103ce31e 	bne	r2,zero,4342c <__alt_data_end+0xfffd142c>
   440a0:	e0800117 	ldw	r2,4(fp)
   440a4:	18c00044 	addi	r3,r3,1
   440a8:	84000044 	addi	r16,r16,1
   440ac:	10bfffc4 	addi	r2,r2,-1
   440b0:	e0800115 	stw	r2,4(fp)
   440b4:	e0c00015 	stw	r3,0(fp)
   440b8:	84fcdc26 	beq	r16,r19,4342c <__alt_data_end+0xfffd142c>
   440bc:	00bff316 	blt	zero,r2,4408c <__alt_data_end+0xfffd208c>
   440c0:	e00b883a 	mov	r5,fp
   440c4:	b009883a 	mov	r4,r22
   440c8:	0049a800 	call	49a80 <__srefill_r>
   440cc:	103cd71e 	bne	r2,zero,4342c <__alt_data_end+0xfffd142c>
   440d0:	b9c00017 	ldw	r7,0(r23)
   440d4:	e0c00017 	ldw	r3,0(fp)
   440d8:	003fec06 	br	4408c <__alt_data_end+0xfffd208c>
   440dc:	e00b883a 	mov	r5,fp
   440e0:	b009883a 	mov	r4,r22
   440e4:	d980a715 	stw	r6,668(sp)
   440e8:	d9c0aa15 	stw	r7,680(sp)
   440ec:	da00a815 	stw	r8,672(sp)
   440f0:	da40a915 	stw	r9,676(sp)
   440f4:	dac0a615 	stw	r11,664(sp)
   440f8:	0049a800 	call	49a80 <__srefill_r>
   440fc:	d980a717 	ldw	r6,668(sp)
   44100:	d9c0aa17 	ldw	r7,680(sp)
   44104:	da00a817 	ldw	r8,672(sp)
   44108:	da40a917 	ldw	r9,676(sp)
   4410c:	dac0a617 	ldw	r11,664(sp)
   44110:	103fa026 	beq	r2,zero,43f94 <__alt_data_end+0xfffd1f94>
   44114:	003fb006 	br	43fd8 <__alt_data_end+0xfffd1fd8>
   44118:	8821883a 	mov	r16,r17
   4411c:	b019883a 	mov	r12,r22
   44120:	9823883a 	mov	r17,r19
   44124:	182d883a 	mov	r22,r3
   44128:	00bfbfc4 	movi	r2,-257
   4412c:	a0a8703a 	and	r20,r20,r2
   44130:	003e6706 	br	43ad0 <__alt_data_end+0xfffd1ad0>
   44134:	000f883a 	mov	r7,zero
   44138:	003f2806 	br	43ddc <__alt_data_end+0xfffd1ddc>
   4413c:	d800a215 	stw	zero,648(sp)
   44140:	003de306 	br	438d0 <__alt_data_end+0xfffd18d0>
   44144:	da009c17 	ldw	r8,624(sp)
   44148:	9abfffc4 	addi	r10,r19,-1
   4414c:	44400017 	ldw	r17,0(r8)
   44150:	44000104 	addi	r16,r8,4
   44154:	880b883a 	mov	r5,r17
   44158:	8aa9883a 	add	r20,r17,r10
   4415c:	00000606 	br	44178 <__svfscanf_r+0x13c4>
   44160:	e0c00017 	ldw	r3,0(fp)
   44164:	b9000017 	ldw	r4,0(r23)
   44168:	a80b883a 	mov	r5,r21
   4416c:	18800003 	ldbu	r2,0(r3)
   44170:	2085883a 	add	r2,r4,r2
   44174:	10800043 	ldbu	r2,1(r2)
   44178:	1080020c 	andi	r2,r2,8
   4417c:	1000551e 	bne	r2,zero,442d4 <__svfscanf_r+0x1520>
   44180:	e0800117 	ldw	r2,4(fp)
   44184:	19000044 	addi	r4,r3,1
   44188:	e1000015 	stw	r4,0(fp)
   4418c:	10bfffc4 	addi	r2,r2,-1
   44190:	e0800115 	stw	r2,4(fp)
   44194:	18800003 	ldbu	r2,0(r3)
   44198:	2d400044 	addi	r21,r5,1
   4419c:	a827883a 	mov	r19,r21
   441a0:	28800005 	stb	r2,0(r5)
   441a4:	2d000626 	beq	r5,r20,441c0 <__svfscanf_r+0x140c>
   441a8:	e0800117 	ldw	r2,4(fp)
   441ac:	00bfec16 	blt	zero,r2,44160 <__alt_data_end+0xfffd2160>
   441b0:	e00b883a 	mov	r5,fp
   441b4:	b009883a 	mov	r4,r22
   441b8:	0049a800 	call	49a80 <__srefill_r>
   441bc:	103fe826 	beq	r2,zero,44160 <__alt_data_end+0xfffd2160>
   441c0:	da00a017 	ldw	r8,640(sp)
   441c4:	dd009d17 	ldw	r20,628(sp)
   441c8:	9c63c83a 	sub	r17,r19,r17
   441cc:	42000044 	addi	r8,r8,1
   441d0:	98000005 	stb	zero,0(r19)
   441d4:	9465883a 	add	r18,r18,r17
   441d8:	da00a015 	stw	r8,640(sp)
   441dc:	dc009c15 	stw	r16,624(sp)
   441e0:	a00d883a 	mov	r6,r20
   441e4:	003b2f06 	br	42ea4 <__alt_data_end+0xfffd0ea4>
   441e8:	dd409904 	addi	r21,sp,612
   441ec:	8c40040c 	andi	r17,r17,16
   441f0:	01800204 	movi	r6,8
   441f4:	000b883a 	mov	r5,zero
   441f8:	a809883a 	mov	r4,r21
   441fc:	00482740 	call	48274 <memset>
   44200:	8800401e 	bne	r17,zero,44304 <__svfscanf_r+0x1550>
   44204:	da009c17 	ldw	r8,624(sp)
   44208:	45000017 	ldw	r20,0(r8)
   4420c:	42000104 	addi	r8,r8,4
   44210:	da009c15 	stw	r8,624(sp)
   44214:	000d883a 	mov	r6,zero
   44218:	3021883a 	mov	r16,r6
   4421c:	dc409f15 	stw	r17,636(sp)
   44220:	e0800017 	ldw	r2,0(fp)
   44224:	b8c00017 	ldw	r3,0(r23)
   44228:	10800003 	ldbu	r2,0(r2)
   4422c:	1885883a 	add	r2,r3,r2
   44230:	10800043 	ldbu	r2,1(r2)
   44234:	1080020c 	andi	r2,r2,8
   44238:	1000011e 	bne	r2,zero,44240 <__svfscanf_r+0x148c>
   4423c:	9800701e 	bne	r19,zero,44400 <__svfscanf_r+0x164c>
   44240:	dc409f17 	ldw	r17,636(sp)
   44244:	883cdd1e 	bne	r17,zero,435bc <__alt_data_end+0xfffd15bc>
   44248:	a0000015 	stw	zero,0(r20)
   4424c:	003cd806 	br	435b0 <__alt_data_end+0xfffd15b0>
   44250:	d9c09e17 	ldw	r7,632(sp)
   44254:	da00a117 	ldw	r8,644(sp)
   44258:	000d883a 	mov	r6,zero
   4425c:	d9400104 	addi	r5,sp,4
   44260:	b009883a 	mov	r4,r22
   44264:	80000005 	stb	zero,0(r16)
   44268:	403ee83a 	callr	r8
   4426c:	88c0080c 	andi	r3,r17,32
   44270:	1800121e 	bne	r3,zero,442bc <__svfscanf_r+0x1508>
   44274:	88c0010c 	andi	r3,r17,4
   44278:	18004d26 	beq	r3,zero,443b0 <__svfscanf_r+0x15fc>
   4427c:	da009c17 	ldw	r8,624(sp)
   44280:	40c00017 	ldw	r3,0(r8)
   44284:	42000104 	addi	r8,r8,4
   44288:	da009c15 	stw	r8,624(sp)
   4428c:	1880000d 	sth	r2,0(r3)
   44290:	da00a017 	ldw	r8,640(sp)
   44294:	42000044 	addi	r8,r8,1
   44298:	da00a015 	stw	r8,640(sp)
   4429c:	003f5906 	br	44004 <__alt_data_end+0xfffd2004>
   442a0:	00bf1fc4 	movi	r2,-897
   442a4:	90a4703a 	and	r18,r18,r2
   442a8:	38000226 	beq	r7,zero,442b4 <__svfscanf_r+0x1500>
   442ac:	39ffffc4 	addi	r7,r7,-1
   442b0:	9cc00044 	addi	r19,r19,1
   442b4:	a5000044 	addi	r20,r20,1
   442b8:	003f3006 	br	43f7c <__alt_data_end+0xfffd1f7c>
   442bc:	da009c17 	ldw	r8,624(sp)
   442c0:	40c00017 	ldw	r3,0(r8)
   442c4:	42000104 	addi	r8,r8,4
   442c8:	da009c15 	stw	r8,624(sp)
   442cc:	18800015 	stw	r2,0(r3)
   442d0:	003fef06 	br	44290 <__alt_data_end+0xfffd2290>
   442d4:	2827883a 	mov	r19,r5
   442d8:	003fb906 	br	441c0 <__alt_data_end+0xfffd21c0>
   442dc:	01be1fc4 	movi	r6,-1921
   442e0:	a1a8703a 	and	r20,r20,r6
   442e4:	05400044 	movi	r21,1
   442e8:	003de906 	br	43a90 <__alt_data_end+0xfffd1a90>
   442ec:	817fffc7 	ldb	r5,-1(r16)
   442f0:	e00d883a 	mov	r6,fp
   442f4:	b009883a 	mov	r4,r22
   442f8:	843fffc4 	addi	r16,r16,-1
   442fc:	004e5d00 	call	4e5d0 <_ungetc_r>
   44300:	003f3c06 	br	43ff4 <__alt_data_end+0xfffd1ff4>
   44304:	dd009b04 	addi	r20,sp,620
   44308:	003fc206 	br	44214 <__alt_data_end+0xfffd2214>
   4430c:	00be1fc4 	movi	r2,-1921
   44310:	a0a8703a 	and	r20,r20,r2
   44314:	05800044 	movi	r22,1
   44318:	003ddd06 	br	43a90 <__alt_data_end+0xfffd1a90>
   4431c:	d8c09f17 	ldw	r3,636(sp)
   44320:	88e3c83a 	sub	r17,r17,r3
   44324:	044dc83a 	sub	r6,zero,r17
   44328:	883e2126 	beq	r17,zero,43bb0 <__alt_data_end+0xfffd1bb0>
   4432c:	d88055c4 	addi	r2,sp,343
   44330:	80800136 	bltu	r16,r2,44338 <__svfscanf_r+0x1584>
   44334:	dc005584 	addi	r16,sp,342
   44338:	01400174 	movhi	r5,5
   4433c:	295bde04 	addi	r5,r5,28536
   44340:	8009883a 	mov	r4,r16
   44344:	0049e4c0 	call	49e4c <sprintf>
   44348:	003e1906 	br	43bb0 <__alt_data_end+0xfffd1bb0>
   4434c:	d8c0a517 	ldw	r3,660(sp)
   44350:	000d883a 	mov	r6,zero
   44354:	01c00284 	movi	r7,10
   44358:	19400044 	addi	r5,r3,1
   4435c:	b009883a 	mov	r4,r22
   44360:	004b8440 	call	4b844 <_strtol_r>
   44364:	da00a417 	ldw	r8,656(sp)
   44368:	dc00a517 	ldw	r16,660(sp)
   4436c:	120dc83a 	sub	r6,r2,r8
   44370:	003fee06 	br	4432c <__alt_data_end+0xfffd232c>
   44374:	da009c17 	ldw	r8,624(sp)
   44378:	180b883a 	mov	r5,r3
   4437c:	8009883a 	mov	r4,r16
   44380:	45000017 	ldw	r20,0(r8)
   44384:	44400104 	addi	r17,r8,4
   44388:	d8c0a615 	stw	r3,664(sp)
   4438c:	0049c540 	call	49c54 <__fpclassifyd>
   44390:	d8c0a617 	ldw	r3,664(sp)
   44394:	10006426 	beq	r2,zero,44528 <__svfscanf_r+0x1774>
   44398:	8009883a 	mov	r4,r16
   4439c:	180b883a 	mov	r5,r3
   443a0:	0055c980 	call	55c98 <__truncdfsf2>
   443a4:	a0800015 	stw	r2,0(r20)
   443a8:	dc409c15 	stw	r17,624(sp)
   443ac:	003e0f06 	br	43bec <__alt_data_end+0xfffd1bec>
   443b0:	88c0004c 	andi	r3,r17,1
   443b4:	183fc11e 	bne	r3,zero,442bc <__alt_data_end+0xfffd22bc>
   443b8:	8c40008c 	andi	r17,r17,2
   443bc:	883fbf26 	beq	r17,zero,442bc <__alt_data_end+0xfffd22bc>
   443c0:	da00a117 	ldw	r8,644(sp)
   443c4:	00800174 	movhi	r2,5
   443c8:	10af6704 	addi	r2,r2,-16996
   443cc:	d9c09e17 	ldw	r7,632(sp)
   443d0:	000d883a 	mov	r6,zero
   443d4:	d9400104 	addi	r5,sp,4
   443d8:	b009883a 	mov	r4,r22
   443dc:	40806226 	beq	r8,r2,44568 <__svfscanf_r+0x17b4>
   443e0:	004ba980 	call	4ba98 <_strtoll_r>
   443e4:	da009c17 	ldw	r8,624(sp)
   443e8:	41000017 	ldw	r4,0(r8)
   443ec:	42000104 	addi	r8,r8,4
   443f0:	da009c15 	stw	r8,624(sp)
   443f4:	20800015 	stw	r2,0(r4)
   443f8:	20c00115 	stw	r3,4(r4)
   443fc:	003fa406 	br	44290 <__alt_data_end+0xfffd2290>
   44400:	00473f40 	call	473f4 <__locale_mb_cur_max>
   44404:	80bca726 	beq	r16,r2,436a4 <__alt_data_end+0xfffd16a4>
   44408:	e0800017 	ldw	r2,0(fp)
   4440c:	e1000117 	ldw	r4,4(fp)
   44410:	d8c00104 	addi	r3,sp,4
   44414:	12000003 	ldbu	r8,0(r2)
   44418:	213fffc4 	addi	r4,r4,-1
   4441c:	10800044 	addi	r2,r2,1
   44420:	e1000115 	stw	r4,4(fp)
   44424:	e0800015 	stw	r2,0(fp)
   44428:	84400044 	addi	r17,r16,1
   4442c:	dd400015 	stw	r21,0(sp)
   44430:	1c21883a 	add	r16,r3,r16
   44434:	b009883a 	mov	r4,r22
   44438:	880f883a 	mov	r7,r17
   4443c:	180d883a 	mov	r6,r3
   44440:	a00b883a 	mov	r5,r20
   44444:	82000005 	stb	r8,0(r16)
   44448:	0047e100 	call	47e10 <_mbrtowc_r>
   4444c:	013fffc4 	movi	r4,-1
   44450:	113c9426 	beq	r2,r4,436a4 <__alt_data_end+0xfffd16a4>
   44454:	103c881e 	bne	r2,zero,43678 <__alt_data_end+0xfffd1678>
   44458:	a0000015 	stw	zero,0(r20)
   4445c:	0009883a 	mov	r4,zero
   44460:	004733c0 	call	4733c <iswspace>
   44464:	10001a26 	beq	r2,zero,444d0 <__svfscanf_r+0x171c>
   44468:	8821883a 	mov	r16,r17
   4446c:	dc409f17 	ldw	r17,636(sp)
   44470:	803f7426 	beq	r16,zero,44244 <__alt_data_end+0xfffd2244>
   44474:	843fffc4 	addi	r16,r16,-1
   44478:	d9800104 	addi	r6,sp,4
   4447c:	342b883a 	add	r21,r6,r16
   44480:	00000106 	br	44488 <__svfscanf_r+0x16d4>
   44484:	843fffc4 	addi	r16,r16,-1
   44488:	a9400003 	ldbu	r5,0(r21)
   4448c:	e00d883a 	mov	r6,fp
   44490:	b009883a 	mov	r4,r22
   44494:	004e5d00 	call	4e5d0 <_ungetc_r>
   44498:	ad7fffc4 	addi	r21,r21,-1
   4449c:	803ff91e 	bne	r16,zero,44484 <__alt_data_end+0xfffd2484>
   444a0:	003f6806 	br	44244 <__alt_data_end+0xfffd2244>
   444a4:	d9800104 	addi	r6,sp,4
   444a8:	802b883a 	mov	r21,r16
   444ac:	343a812e 	bgeu	r6,r16,42eb4 <__alt_data_end+0xfffd0eb4>
   444b0:	ad7fffc4 	addi	r21,r21,-1
   444b4:	a9400007 	ldb	r5,0(r21)
   444b8:	e00d883a 	mov	r6,fp
   444bc:	b009883a 	mov	r4,r22
   444c0:	004e5d00 	call	4e5d0 <_ungetc_r>
   444c4:	da000104 	addi	r8,sp,4
   444c8:	457ff91e 	bne	r8,r21,444b0 <__alt_data_end+0xfffd24b0>
   444cc:	003a7906 	br	42eb4 <__alt_data_end+0xfffd0eb4>
   444d0:	da009f17 	ldw	r8,636(sp)
   444d4:	9465883a 	add	r18,r18,r17
   444d8:	9cffffc4 	addi	r19,r19,-1
   444dc:	4000051e 	bne	r8,zero,444f4 <__svfscanf_r+0x1740>
   444e0:	a5000104 	addi	r20,r20,4
   444e4:	0021883a 	mov	r16,zero
   444e8:	003c6606 	br	43684 <__alt_data_end+0xfffd1684>
   444ec:	a1000017 	ldw	r4,0(r20)
   444f0:	003fdb06 	br	44460 <__alt_data_end+0xfffd2460>
   444f4:	0021883a 	mov	r16,zero
   444f8:	003c6206 	br	43684 <__alt_data_end+0xfffd1684>
   444fc:	d8800104 	addi	r2,sp,4
   44500:	802b883a 	mov	r21,r16
   44504:	143a6b2e 	bgeu	r2,r16,42eb4 <__alt_data_end+0xfffd0eb4>
   44508:	ad7fffc4 	addi	r21,r21,-1
   4450c:	a9400007 	ldb	r5,0(r21)
   44510:	e00d883a 	mov	r6,fp
   44514:	b009883a 	mov	r4,r22
   44518:	004e5d00 	call	4e5d0 <_ungetc_r>
   4451c:	d8c00104 	addi	r3,sp,4
   44520:	1d7ff91e 	bne	r3,r21,44508 <__alt_data_end+0xfffd2508>
   44524:	003a6306 	br	42eb4 <__alt_data_end+0xfffd0eb4>
   44528:	0009883a 	mov	r4,zero
   4452c:	0049dec0 	call	49dec <nanf>
   44530:	a0800015 	stw	r2,0(r20)
   44534:	dc409c15 	stw	r17,624(sp)
   44538:	003dac06 	br	43bec <__alt_data_end+0xfffd1bec>
   4453c:	d9000104 	addi	r4,sp,4
   44540:	802b883a 	mov	r21,r16
   44544:	243a5b2e 	bgeu	r4,r16,42eb4 <__alt_data_end+0xfffd0eb4>
   44548:	ad7fffc4 	addi	r21,r21,-1
   4454c:	a9400007 	ldb	r5,0(r21)
   44550:	e00d883a 	mov	r6,fp
   44554:	b009883a 	mov	r4,r22
   44558:	004e5d00 	call	4e5d0 <_ungetc_r>
   4455c:	d9400104 	addi	r5,sp,4
   44560:	2d7ff91e 	bne	r5,r21,44548 <__alt_data_end+0xfffd2548>
   44564:	003a5306 	br	42eb4 <__alt_data_end+0xfffd0eb4>
   44568:	004c0040 	call	4c004 <_strtoull_r>
   4456c:	003f9d06 	br	443e4 <__alt_data_end+0xfffd23e4>

00044570 <vfscanf>:
   44570:	008001b4 	movhi	r2,6
   44574:	defffb04 	addi	sp,sp,-20
   44578:	10a02304 	addi	r2,r2,-32628
   4457c:	dc000215 	stw	r16,8(sp)
   44580:	14000017 	ldw	r16,0(r2)
   44584:	dc400315 	stw	r17,12(sp)
   44588:	dfc00415 	stw	ra,16(sp)
   4458c:	2023883a 	mov	r17,r4
   44590:	80000826 	beq	r16,zero,445b4 <vfscanf+0x44>
   44594:	80800e17 	ldw	r2,56(r16)
   44598:	1000061e 	bne	r2,zero,445b4 <vfscanf+0x44>
   4459c:	8009883a 	mov	r4,r16
   445a0:	d9400015 	stw	r5,0(sp)
   445a4:	d9800115 	stw	r6,4(sp)
   445a8:	00466140 	call	46614 <__sinit>
   445ac:	d9800117 	ldw	r6,4(sp)
   445b0:	d9400017 	ldw	r5,0(sp)
   445b4:	300f883a 	mov	r7,r6
   445b8:	8009883a 	mov	r4,r16
   445bc:	280d883a 	mov	r6,r5
   445c0:	880b883a 	mov	r5,r17
   445c4:	dfc00417 	ldw	ra,16(sp)
   445c8:	dc400317 	ldw	r17,12(sp)
   445cc:	dc000217 	ldw	r16,8(sp)
   445d0:	dec00504 	addi	sp,sp,20
   445d4:	0042db41 	jmpi	42db4 <__svfscanf_r>

000445d8 <__svfscanf>:
   445d8:	008001b4 	movhi	r2,6
   445dc:	10a02304 	addi	r2,r2,-32628
   445e0:	300f883a 	mov	r7,r6
   445e4:	280d883a 	mov	r6,r5
   445e8:	200b883a 	mov	r5,r4
   445ec:	11000017 	ldw	r4,0(r2)
   445f0:	0042db41 	jmpi	42db4 <__svfscanf_r>

000445f4 <_vfscanf_r>:
   445f4:	defffb04 	addi	sp,sp,-20
   445f8:	dc000315 	stw	r16,12(sp)
   445fc:	dfc00415 	stw	ra,16(sp)
   44600:	2021883a 	mov	r16,r4
   44604:	20000926 	beq	r4,zero,4462c <_vfscanf_r+0x38>
   44608:	20800e17 	ldw	r2,56(r4)
   4460c:	1000071e 	bne	r2,zero,4462c <_vfscanf_r+0x38>
   44610:	d9400015 	stw	r5,0(sp)
   44614:	d9800115 	stw	r6,4(sp)
   44618:	d9c00215 	stw	r7,8(sp)
   4461c:	00466140 	call	46614 <__sinit>
   44620:	d9c00217 	ldw	r7,8(sp)
   44624:	d9800117 	ldw	r6,4(sp)
   44628:	d9400017 	ldw	r5,0(sp)
   4462c:	8009883a 	mov	r4,r16
   44630:	dfc00417 	ldw	ra,16(sp)
   44634:	dc000317 	ldw	r16,12(sp)
   44638:	dec00504 	addi	sp,sp,20
   4463c:	0042db41 	jmpi	42db4 <__svfscanf_r>

00044640 <__swsetup_r>:
   44640:	008001b4 	movhi	r2,6
   44644:	defffd04 	addi	sp,sp,-12
   44648:	10a02304 	addi	r2,r2,-32628
   4464c:	dc400115 	stw	r17,4(sp)
   44650:	2023883a 	mov	r17,r4
   44654:	11000017 	ldw	r4,0(r2)
   44658:	dc000015 	stw	r16,0(sp)
   4465c:	dfc00215 	stw	ra,8(sp)
   44660:	2821883a 	mov	r16,r5
   44664:	20000226 	beq	r4,zero,44670 <__swsetup_r+0x30>
   44668:	20800e17 	ldw	r2,56(r4)
   4466c:	10003126 	beq	r2,zero,44734 <__swsetup_r+0xf4>
   44670:	8080030b 	ldhu	r2,12(r16)
   44674:	10c0020c 	andi	r3,r2,8
   44678:	1009883a 	mov	r4,r2
   4467c:	18000f26 	beq	r3,zero,446bc <__swsetup_r+0x7c>
   44680:	80c00417 	ldw	r3,16(r16)
   44684:	18001526 	beq	r3,zero,446dc <__swsetup_r+0x9c>
   44688:	1100004c 	andi	r4,r2,1
   4468c:	20001c1e 	bne	r4,zero,44700 <__swsetup_r+0xc0>
   44690:	1080008c 	andi	r2,r2,2
   44694:	1000291e 	bne	r2,zero,4473c <__swsetup_r+0xfc>
   44698:	80800517 	ldw	r2,20(r16)
   4469c:	80800215 	stw	r2,8(r16)
   446a0:	18001c26 	beq	r3,zero,44714 <__swsetup_r+0xd4>
   446a4:	0005883a 	mov	r2,zero
   446a8:	dfc00217 	ldw	ra,8(sp)
   446ac:	dc400117 	ldw	r17,4(sp)
   446b0:	dc000017 	ldw	r16,0(sp)
   446b4:	dec00304 	addi	sp,sp,12
   446b8:	f800283a 	ret
   446bc:	2080040c 	andi	r2,r4,16
   446c0:	10002e26 	beq	r2,zero,4477c <__swsetup_r+0x13c>
   446c4:	2080010c 	andi	r2,r4,4
   446c8:	10001e1e 	bne	r2,zero,44744 <__swsetup_r+0x104>
   446cc:	80c00417 	ldw	r3,16(r16)
   446d0:	20800214 	ori	r2,r4,8
   446d4:	8080030d 	sth	r2,12(r16)
   446d8:	183feb1e 	bne	r3,zero,44688 <__alt_data_end+0xfffd2688>
   446dc:	1100a00c 	andi	r4,r2,640
   446e0:	01408004 	movi	r5,512
   446e4:	217fe826 	beq	r4,r5,44688 <__alt_data_end+0xfffd2688>
   446e8:	800b883a 	mov	r5,r16
   446ec:	8809883a 	mov	r4,r17
   446f0:	00474480 	call	47448 <__smakebuf_r>
   446f4:	8080030b 	ldhu	r2,12(r16)
   446f8:	80c00417 	ldw	r3,16(r16)
   446fc:	003fe206 	br	44688 <__alt_data_end+0xfffd2688>
   44700:	80800517 	ldw	r2,20(r16)
   44704:	80000215 	stw	zero,8(r16)
   44708:	0085c83a 	sub	r2,zero,r2
   4470c:	80800615 	stw	r2,24(r16)
   44710:	183fe41e 	bne	r3,zero,446a4 <__alt_data_end+0xfffd26a4>
   44714:	80c0030b 	ldhu	r3,12(r16)
   44718:	0005883a 	mov	r2,zero
   4471c:	1900200c 	andi	r4,r3,128
   44720:	203fe126 	beq	r4,zero,446a8 <__alt_data_end+0xfffd26a8>
   44724:	18c01014 	ori	r3,r3,64
   44728:	80c0030d 	sth	r3,12(r16)
   4472c:	00bfffc4 	movi	r2,-1
   44730:	003fdd06 	br	446a8 <__alt_data_end+0xfffd26a8>
   44734:	00466140 	call	46614 <__sinit>
   44738:	003fcd06 	br	44670 <__alt_data_end+0xfffd2670>
   4473c:	0005883a 	mov	r2,zero
   44740:	003fd606 	br	4469c <__alt_data_end+0xfffd269c>
   44744:	81400c17 	ldw	r5,48(r16)
   44748:	28000626 	beq	r5,zero,44764 <__swsetup_r+0x124>
   4474c:	80801004 	addi	r2,r16,64
   44750:	28800326 	beq	r5,r2,44760 <__swsetup_r+0x120>
   44754:	8809883a 	mov	r4,r17
   44758:	00469e80 	call	469e8 <_free_r>
   4475c:	8100030b 	ldhu	r4,12(r16)
   44760:	80000c15 	stw	zero,48(r16)
   44764:	80c00417 	ldw	r3,16(r16)
   44768:	00bff6c4 	movi	r2,-37
   4476c:	1108703a 	and	r4,r2,r4
   44770:	80000115 	stw	zero,4(r16)
   44774:	80c00015 	stw	r3,0(r16)
   44778:	003fd506 	br	446d0 <__alt_data_end+0xfffd26d0>
   4477c:	00800244 	movi	r2,9
   44780:	88800015 	stw	r2,0(r17)
   44784:	20801014 	ori	r2,r4,64
   44788:	8080030d 	sth	r2,12(r16)
   4478c:	00bfffc4 	movi	r2,-1
   44790:	003fc506 	br	446a8 <__alt_data_end+0xfffd26a8>

00044794 <quorem>:
   44794:	defff704 	addi	sp,sp,-36
   44798:	dc800215 	stw	r18,8(sp)
   4479c:	20800417 	ldw	r2,16(r4)
   447a0:	2c800417 	ldw	r18,16(r5)
   447a4:	dfc00815 	stw	ra,32(sp)
   447a8:	ddc00715 	stw	r23,28(sp)
   447ac:	dd800615 	stw	r22,24(sp)
   447b0:	dd400515 	stw	r21,20(sp)
   447b4:	dd000415 	stw	r20,16(sp)
   447b8:	dcc00315 	stw	r19,12(sp)
   447bc:	dc400115 	stw	r17,4(sp)
   447c0:	dc000015 	stw	r16,0(sp)
   447c4:	14807116 	blt	r2,r18,4498c <quorem+0x1f8>
   447c8:	94bfffc4 	addi	r18,r18,-1
   447cc:	94ad883a 	add	r22,r18,r18
   447d0:	b5ad883a 	add	r22,r22,r22
   447d4:	2c400504 	addi	r17,r5,20
   447d8:	8da9883a 	add	r20,r17,r22
   447dc:	25400504 	addi	r21,r4,20
   447e0:	282f883a 	mov	r23,r5
   447e4:	adad883a 	add	r22,r21,r22
   447e8:	a1400017 	ldw	r5,0(r20)
   447ec:	2021883a 	mov	r16,r4
   447f0:	b1000017 	ldw	r4,0(r22)
   447f4:	29400044 	addi	r5,r5,1
   447f8:	00533dc0 	call	533dc <__udivsi3>
   447fc:	1027883a 	mov	r19,r2
   44800:	10002c26 	beq	r2,zero,448b4 <quorem+0x120>
   44804:	a813883a 	mov	r9,r21
   44808:	880b883a 	mov	r5,r17
   4480c:	0009883a 	mov	r4,zero
   44810:	000d883a 	mov	r6,zero
   44814:	2a000017 	ldw	r8,0(r5)
   44818:	49c00017 	ldw	r7,0(r9)
   4481c:	29400104 	addi	r5,r5,4
   44820:	40bfffcc 	andi	r2,r8,65535
   44824:	14c5383a 	mul	r2,r2,r19
   44828:	4010d43a 	srli	r8,r8,16
   4482c:	38ffffcc 	andi	r3,r7,65535
   44830:	1105883a 	add	r2,r2,r4
   44834:	1008d43a 	srli	r4,r2,16
   44838:	44d1383a 	mul	r8,r8,r19
   4483c:	198d883a 	add	r6,r3,r6
   44840:	10ffffcc 	andi	r3,r2,65535
   44844:	30c7c83a 	sub	r3,r6,r3
   44848:	380ed43a 	srli	r7,r7,16
   4484c:	4105883a 	add	r2,r8,r4
   44850:	180dd43a 	srai	r6,r3,16
   44854:	113fffcc 	andi	r4,r2,65535
   44858:	390fc83a 	sub	r7,r7,r4
   4485c:	398d883a 	add	r6,r7,r6
   44860:	300e943a 	slli	r7,r6,16
   44864:	18ffffcc 	andi	r3,r3,65535
   44868:	1008d43a 	srli	r4,r2,16
   4486c:	38ceb03a 	or	r7,r7,r3
   44870:	49c00015 	stw	r7,0(r9)
   44874:	300dd43a 	srai	r6,r6,16
   44878:	4a400104 	addi	r9,r9,4
   4487c:	a17fe52e 	bgeu	r20,r5,44814 <__alt_data_end+0xfffd2814>
   44880:	b0800017 	ldw	r2,0(r22)
   44884:	10000b1e 	bne	r2,zero,448b4 <quorem+0x120>
   44888:	b0bfff04 	addi	r2,r22,-4
   4488c:	a880082e 	bgeu	r21,r2,448b0 <quorem+0x11c>
   44890:	b0ffff17 	ldw	r3,-4(r22)
   44894:	18000326 	beq	r3,zero,448a4 <quorem+0x110>
   44898:	00000506 	br	448b0 <quorem+0x11c>
   4489c:	10c00017 	ldw	r3,0(r2)
   448a0:	1800031e 	bne	r3,zero,448b0 <quorem+0x11c>
   448a4:	10bfff04 	addi	r2,r2,-4
   448a8:	94bfffc4 	addi	r18,r18,-1
   448ac:	a8bffb36 	bltu	r21,r2,4489c <__alt_data_end+0xfffd289c>
   448b0:	84800415 	stw	r18,16(r16)
   448b4:	b80b883a 	mov	r5,r23
   448b8:	8009883a 	mov	r4,r16
   448bc:	0048c640 	call	48c64 <__mcmp>
   448c0:	10002616 	blt	r2,zero,4495c <quorem+0x1c8>
   448c4:	9cc00044 	addi	r19,r19,1
   448c8:	a805883a 	mov	r2,r21
   448cc:	000b883a 	mov	r5,zero
   448d0:	11000017 	ldw	r4,0(r2)
   448d4:	89800017 	ldw	r6,0(r17)
   448d8:	10800104 	addi	r2,r2,4
   448dc:	20ffffcc 	andi	r3,r4,65535
   448e0:	194b883a 	add	r5,r3,r5
   448e4:	30ffffcc 	andi	r3,r6,65535
   448e8:	28c7c83a 	sub	r3,r5,r3
   448ec:	300cd43a 	srli	r6,r6,16
   448f0:	2008d43a 	srli	r4,r4,16
   448f4:	180bd43a 	srai	r5,r3,16
   448f8:	18ffffcc 	andi	r3,r3,65535
   448fc:	2189c83a 	sub	r4,r4,r6
   44900:	2149883a 	add	r4,r4,r5
   44904:	200c943a 	slli	r6,r4,16
   44908:	8c400104 	addi	r17,r17,4
   4490c:	200bd43a 	srai	r5,r4,16
   44910:	30c6b03a 	or	r3,r6,r3
   44914:	10ffff15 	stw	r3,-4(r2)
   44918:	a47fed2e 	bgeu	r20,r17,448d0 <__alt_data_end+0xfffd28d0>
   4491c:	9485883a 	add	r2,r18,r18
   44920:	1085883a 	add	r2,r2,r2
   44924:	a887883a 	add	r3,r21,r2
   44928:	18800017 	ldw	r2,0(r3)
   4492c:	10000b1e 	bne	r2,zero,4495c <quorem+0x1c8>
   44930:	18bfff04 	addi	r2,r3,-4
   44934:	a880082e 	bgeu	r21,r2,44958 <quorem+0x1c4>
   44938:	18ffff17 	ldw	r3,-4(r3)
   4493c:	18000326 	beq	r3,zero,4494c <quorem+0x1b8>
   44940:	00000506 	br	44958 <quorem+0x1c4>
   44944:	10c00017 	ldw	r3,0(r2)
   44948:	1800031e 	bne	r3,zero,44958 <quorem+0x1c4>
   4494c:	10bfff04 	addi	r2,r2,-4
   44950:	94bfffc4 	addi	r18,r18,-1
   44954:	a8bffb36 	bltu	r21,r2,44944 <__alt_data_end+0xfffd2944>
   44958:	84800415 	stw	r18,16(r16)
   4495c:	9805883a 	mov	r2,r19
   44960:	dfc00817 	ldw	ra,32(sp)
   44964:	ddc00717 	ldw	r23,28(sp)
   44968:	dd800617 	ldw	r22,24(sp)
   4496c:	dd400517 	ldw	r21,20(sp)
   44970:	dd000417 	ldw	r20,16(sp)
   44974:	dcc00317 	ldw	r19,12(sp)
   44978:	dc800217 	ldw	r18,8(sp)
   4497c:	dc400117 	ldw	r17,4(sp)
   44980:	dc000017 	ldw	r16,0(sp)
   44984:	dec00904 	addi	sp,sp,36
   44988:	f800283a 	ret
   4498c:	0005883a 	mov	r2,zero
   44990:	003ff306 	br	44960 <__alt_data_end+0xfffd2960>

00044994 <_dtoa_r>:
   44994:	20801017 	ldw	r2,64(r4)
   44998:	deffde04 	addi	sp,sp,-136
   4499c:	df002015 	stw	fp,128(sp)
   449a0:	dcc01b15 	stw	r19,108(sp)
   449a4:	dc801a15 	stw	r18,104(sp)
   449a8:	dc401915 	stw	r17,100(sp)
   449ac:	dc001815 	stw	r16,96(sp)
   449b0:	dfc02115 	stw	ra,132(sp)
   449b4:	ddc01f15 	stw	r23,124(sp)
   449b8:	dd801e15 	stw	r22,120(sp)
   449bc:	dd401d15 	stw	r21,116(sp)
   449c0:	dd001c15 	stw	r20,112(sp)
   449c4:	d9c00315 	stw	r7,12(sp)
   449c8:	2039883a 	mov	fp,r4
   449cc:	3023883a 	mov	r17,r6
   449d0:	2825883a 	mov	r18,r5
   449d4:	dc002417 	ldw	r16,144(sp)
   449d8:	3027883a 	mov	r19,r6
   449dc:	10000826 	beq	r2,zero,44a00 <_dtoa_r+0x6c>
   449e0:	21801117 	ldw	r6,68(r4)
   449e4:	00c00044 	movi	r3,1
   449e8:	100b883a 	mov	r5,r2
   449ec:	1986983a 	sll	r3,r3,r6
   449f0:	11800115 	stw	r6,4(r2)
   449f4:	10c00215 	stw	r3,8(r2)
   449f8:	00484440 	call	48444 <_Bfree>
   449fc:	e0001015 	stw	zero,64(fp)
   44a00:	88002e16 	blt	r17,zero,44abc <_dtoa_r+0x128>
   44a04:	80000015 	stw	zero,0(r16)
   44a08:	889ffc2c 	andhi	r2,r17,32752
   44a0c:	00dffc34 	movhi	r3,32752
   44a10:	10c01c26 	beq	r2,r3,44a84 <_dtoa_r+0xf0>
   44a14:	000d883a 	mov	r6,zero
   44a18:	000f883a 	mov	r7,zero
   44a1c:	9009883a 	mov	r4,r18
   44a20:	980b883a 	mov	r5,r19
   44a24:	00548280 	call	54828 <__eqdf2>
   44a28:	10002b1e 	bne	r2,zero,44ad8 <_dtoa_r+0x144>
   44a2c:	d9c02317 	ldw	r7,140(sp)
   44a30:	00800044 	movi	r2,1
   44a34:	38800015 	stw	r2,0(r7)
   44a38:	d8802517 	ldw	r2,148(sp)
   44a3c:	10019e26 	beq	r2,zero,450b8 <_dtoa_r+0x724>
   44a40:	d8c02517 	ldw	r3,148(sp)
   44a44:	00800174 	movhi	r2,5
   44a48:	109bd544 	addi	r2,r2,28501
   44a4c:	18800015 	stw	r2,0(r3)
   44a50:	10bfffc4 	addi	r2,r2,-1
   44a54:	dfc02117 	ldw	ra,132(sp)
   44a58:	df002017 	ldw	fp,128(sp)
   44a5c:	ddc01f17 	ldw	r23,124(sp)
   44a60:	dd801e17 	ldw	r22,120(sp)
   44a64:	dd401d17 	ldw	r21,116(sp)
   44a68:	dd001c17 	ldw	r20,112(sp)
   44a6c:	dcc01b17 	ldw	r19,108(sp)
   44a70:	dc801a17 	ldw	r18,104(sp)
   44a74:	dc401917 	ldw	r17,100(sp)
   44a78:	dc001817 	ldw	r16,96(sp)
   44a7c:	dec02204 	addi	sp,sp,136
   44a80:	f800283a 	ret
   44a84:	d8c02317 	ldw	r3,140(sp)
   44a88:	0089c3c4 	movi	r2,9999
   44a8c:	18800015 	stw	r2,0(r3)
   44a90:	90017726 	beq	r18,zero,45070 <_dtoa_r+0x6dc>
   44a94:	00800174 	movhi	r2,5
   44a98:	109c8c04 	addi	r2,r2,29232
   44a9c:	d9002517 	ldw	r4,148(sp)
   44aa0:	203fec26 	beq	r4,zero,44a54 <__alt_data_end+0xfffd2a54>
   44aa4:	10c000c7 	ldb	r3,3(r2)
   44aa8:	1801781e 	bne	r3,zero,4508c <_dtoa_r+0x6f8>
   44aac:	10c000c4 	addi	r3,r2,3
   44ab0:	d9802517 	ldw	r6,148(sp)
   44ab4:	30c00015 	stw	r3,0(r6)
   44ab8:	003fe606 	br	44a54 <__alt_data_end+0xfffd2a54>
   44abc:	04e00034 	movhi	r19,32768
   44ac0:	9cffffc4 	addi	r19,r19,-1
   44ac4:	00800044 	movi	r2,1
   44ac8:	8ce6703a 	and	r19,r17,r19
   44acc:	80800015 	stw	r2,0(r16)
   44ad0:	9823883a 	mov	r17,r19
   44ad4:	003fcc06 	br	44a08 <__alt_data_end+0xfffd2a08>
   44ad8:	d8800204 	addi	r2,sp,8
   44adc:	d8800015 	stw	r2,0(sp)
   44ae0:	d9c00104 	addi	r7,sp,4
   44ae4:	900b883a 	mov	r5,r18
   44ae8:	980d883a 	mov	r6,r19
   44aec:	e009883a 	mov	r4,fp
   44af0:	8820d53a 	srli	r16,r17,20
   44af4:	00490300 	call	49030 <__d2b>
   44af8:	d8800915 	stw	r2,36(sp)
   44afc:	8001651e 	bne	r16,zero,45094 <_dtoa_r+0x700>
   44b00:	dd800217 	ldw	r22,8(sp)
   44b04:	dc000117 	ldw	r16,4(sp)
   44b08:	00800804 	movi	r2,32
   44b0c:	b421883a 	add	r16,r22,r16
   44b10:	80c10c84 	addi	r3,r16,1074
   44b14:	10c2d10e 	bge	r2,r3,4565c <_dtoa_r+0xcc8>
   44b18:	00801004 	movi	r2,64
   44b1c:	81010484 	addi	r4,r16,1042
   44b20:	10c7c83a 	sub	r3,r2,r3
   44b24:	9108d83a 	srl	r4,r18,r4
   44b28:	88e2983a 	sll	r17,r17,r3
   44b2c:	2448b03a 	or	r4,r4,r17
   44b30:	0055bf00 	call	55bf0 <__floatunsidf>
   44b34:	017f8434 	movhi	r5,65040
   44b38:	01800044 	movi	r6,1
   44b3c:	1009883a 	mov	r4,r2
   44b40:	194b883a 	add	r5,r3,r5
   44b44:	843fffc4 	addi	r16,r16,-1
   44b48:	d9801115 	stw	r6,68(sp)
   44b4c:	000d883a 	mov	r6,zero
   44b50:	01cffe34 	movhi	r7,16376
   44b54:	00551980 	call	55198 <__subdf3>
   44b58:	0198dbf4 	movhi	r6,25455
   44b5c:	01cff4f4 	movhi	r7,16339
   44b60:	3190d844 	addi	r6,r6,17249
   44b64:	39e1e9c4 	addi	r7,r7,-30809
   44b68:	1009883a 	mov	r4,r2
   44b6c:	180b883a 	mov	r5,r3
   44b70:	0054a800 	call	54a80 <__muldf3>
   44b74:	01a2d874 	movhi	r6,35681
   44b78:	01cff1f4 	movhi	r7,16327
   44b7c:	31b22cc4 	addi	r6,r6,-14157
   44b80:	39e28a04 	addi	r7,r7,-30168
   44b84:	180b883a 	mov	r5,r3
   44b88:	1009883a 	mov	r4,r2
   44b8c:	00536940 	call	53694 <__adddf3>
   44b90:	8009883a 	mov	r4,r16
   44b94:	1029883a 	mov	r20,r2
   44b98:	1823883a 	mov	r17,r3
   44b9c:	0055b140 	call	55b14 <__floatsidf>
   44ba0:	019427f4 	movhi	r6,20639
   44ba4:	01cff4f4 	movhi	r7,16339
   44ba8:	319e7ec4 	addi	r6,r6,31227
   44bac:	39d104c4 	addi	r7,r7,17427
   44bb0:	1009883a 	mov	r4,r2
   44bb4:	180b883a 	mov	r5,r3
   44bb8:	0054a800 	call	54a80 <__muldf3>
   44bbc:	100d883a 	mov	r6,r2
   44bc0:	180f883a 	mov	r7,r3
   44bc4:	a009883a 	mov	r4,r20
   44bc8:	880b883a 	mov	r5,r17
   44bcc:	00536940 	call	53694 <__adddf3>
   44bd0:	1009883a 	mov	r4,r2
   44bd4:	180b883a 	mov	r5,r3
   44bd8:	1029883a 	mov	r20,r2
   44bdc:	1823883a 	mov	r17,r3
   44be0:	0055a940 	call	55a94 <__fixdfsi>
   44be4:	000d883a 	mov	r6,zero
   44be8:	000f883a 	mov	r7,zero
   44bec:	a009883a 	mov	r4,r20
   44bf0:	880b883a 	mov	r5,r17
   44bf4:	d8800515 	stw	r2,20(sp)
   44bf8:	005498c0 	call	5498c <__ledf2>
   44bfc:	10028716 	blt	r2,zero,4561c <_dtoa_r+0xc88>
   44c00:	d8c00517 	ldw	r3,20(sp)
   44c04:	00800584 	movi	r2,22
   44c08:	10c27536 	bltu	r2,r3,455e0 <_dtoa_r+0xc4c>
   44c0c:	180490fa 	slli	r2,r3,3
   44c10:	00c00174 	movhi	r3,5
   44c14:	18dca804 	addi	r3,r3,29344
   44c18:	1885883a 	add	r2,r3,r2
   44c1c:	11000017 	ldw	r4,0(r2)
   44c20:	11400117 	ldw	r5,4(r2)
   44c24:	900d883a 	mov	r6,r18
   44c28:	980f883a 	mov	r7,r19
   44c2c:	00548b00 	call	548b0 <__gedf2>
   44c30:	00828d0e 	bge	zero,r2,45668 <_dtoa_r+0xcd4>
   44c34:	d9000517 	ldw	r4,20(sp)
   44c38:	d8000e15 	stw	zero,56(sp)
   44c3c:	213fffc4 	addi	r4,r4,-1
   44c40:	d9000515 	stw	r4,20(sp)
   44c44:	b42dc83a 	sub	r22,r22,r16
   44c48:	b5bfffc4 	addi	r22,r22,-1
   44c4c:	b0026f16 	blt	r22,zero,4560c <_dtoa_r+0xc78>
   44c50:	d8000815 	stw	zero,32(sp)
   44c54:	d9c00517 	ldw	r7,20(sp)
   44c58:	38026416 	blt	r7,zero,455ec <_dtoa_r+0xc58>
   44c5c:	b1ed883a 	add	r22,r22,r7
   44c60:	d9c00d15 	stw	r7,52(sp)
   44c64:	d8000a15 	stw	zero,40(sp)
   44c68:	d9800317 	ldw	r6,12(sp)
   44c6c:	00800244 	movi	r2,9
   44c70:	11811436 	bltu	r2,r6,450c4 <_dtoa_r+0x730>
   44c74:	00800144 	movi	r2,5
   44c78:	1184e10e 	bge	r2,r6,46000 <_dtoa_r+0x166c>
   44c7c:	31bfff04 	addi	r6,r6,-4
   44c80:	d9800315 	stw	r6,12(sp)
   44c84:	0023883a 	mov	r17,zero
   44c88:	d9800317 	ldw	r6,12(sp)
   44c8c:	008000c4 	movi	r2,3
   44c90:	30836726 	beq	r6,r2,45a30 <_dtoa_r+0x109c>
   44c94:	1183410e 	bge	r2,r6,4599c <_dtoa_r+0x1008>
   44c98:	d9c00317 	ldw	r7,12(sp)
   44c9c:	00800104 	movi	r2,4
   44ca0:	38827c26 	beq	r7,r2,45694 <_dtoa_r+0xd00>
   44ca4:	00800144 	movi	r2,5
   44ca8:	3884c41e 	bne	r7,r2,45fbc <_dtoa_r+0x1628>
   44cac:	00800044 	movi	r2,1
   44cb0:	d8800b15 	stw	r2,44(sp)
   44cb4:	d8c00517 	ldw	r3,20(sp)
   44cb8:	d9002217 	ldw	r4,136(sp)
   44cbc:	1907883a 	add	r3,r3,r4
   44cc0:	19800044 	addi	r6,r3,1
   44cc4:	d8c00c15 	stw	r3,48(sp)
   44cc8:	d9800615 	stw	r6,24(sp)
   44ccc:	0183a40e 	bge	zero,r6,45b60 <_dtoa_r+0x11cc>
   44cd0:	d9800617 	ldw	r6,24(sp)
   44cd4:	3021883a 	mov	r16,r6
   44cd8:	e0001115 	stw	zero,68(fp)
   44cdc:	008005c4 	movi	r2,23
   44ce0:	1184c92e 	bgeu	r2,r6,46008 <_dtoa_r+0x1674>
   44ce4:	00c00044 	movi	r3,1
   44ce8:	00800104 	movi	r2,4
   44cec:	1085883a 	add	r2,r2,r2
   44cf0:	11000504 	addi	r4,r2,20
   44cf4:	180b883a 	mov	r5,r3
   44cf8:	18c00044 	addi	r3,r3,1
   44cfc:	313ffb2e 	bgeu	r6,r4,44cec <__alt_data_end+0xfffd2cec>
   44d00:	e1401115 	stw	r5,68(fp)
   44d04:	e009883a 	mov	r4,fp
   44d08:	004839c0 	call	4839c <_Balloc>
   44d0c:	d8800715 	stw	r2,28(sp)
   44d10:	e0801015 	stw	r2,64(fp)
   44d14:	00800384 	movi	r2,14
   44d18:	1400f736 	bltu	r2,r16,450f8 <_dtoa_r+0x764>
   44d1c:	8800f626 	beq	r17,zero,450f8 <_dtoa_r+0x764>
   44d20:	d9c00517 	ldw	r7,20(sp)
   44d24:	01c39a0e 	bge	zero,r7,45b90 <_dtoa_r+0x11fc>
   44d28:	388003cc 	andi	r2,r7,15
   44d2c:	100490fa 	slli	r2,r2,3
   44d30:	382bd13a 	srai	r21,r7,4
   44d34:	00c00174 	movhi	r3,5
   44d38:	18dca804 	addi	r3,r3,29344
   44d3c:	1885883a 	add	r2,r3,r2
   44d40:	a8c0040c 	andi	r3,r21,16
   44d44:	12400017 	ldw	r9,0(r2)
   44d48:	12000117 	ldw	r8,4(r2)
   44d4c:	18037926 	beq	r3,zero,45b34 <_dtoa_r+0x11a0>
   44d50:	00800174 	movhi	r2,5
   44d54:	109c9e04 	addi	r2,r2,29304
   44d58:	11800817 	ldw	r6,32(r2)
   44d5c:	11c00917 	ldw	r7,36(r2)
   44d60:	9009883a 	mov	r4,r18
   44d64:	980b883a 	mov	r5,r19
   44d68:	da001715 	stw	r8,92(sp)
   44d6c:	da401615 	stw	r9,88(sp)
   44d70:	0053f400 	call	53f40 <__divdf3>
   44d74:	da001717 	ldw	r8,92(sp)
   44d78:	da401617 	ldw	r9,88(sp)
   44d7c:	ad4003cc 	andi	r21,r21,15
   44d80:	040000c4 	movi	r16,3
   44d84:	1023883a 	mov	r17,r2
   44d88:	1829883a 	mov	r20,r3
   44d8c:	a8001126 	beq	r21,zero,44dd4 <_dtoa_r+0x440>
   44d90:	05c00174 	movhi	r23,5
   44d94:	bddc9e04 	addi	r23,r23,29304
   44d98:	4805883a 	mov	r2,r9
   44d9c:	4007883a 	mov	r3,r8
   44da0:	a980004c 	andi	r6,r21,1
   44da4:	1009883a 	mov	r4,r2
   44da8:	a82bd07a 	srai	r21,r21,1
   44dac:	180b883a 	mov	r5,r3
   44db0:	30000426 	beq	r6,zero,44dc4 <_dtoa_r+0x430>
   44db4:	b9800017 	ldw	r6,0(r23)
   44db8:	b9c00117 	ldw	r7,4(r23)
   44dbc:	84000044 	addi	r16,r16,1
   44dc0:	0054a800 	call	54a80 <__muldf3>
   44dc4:	bdc00204 	addi	r23,r23,8
   44dc8:	a83ff51e 	bne	r21,zero,44da0 <__alt_data_end+0xfffd2da0>
   44dcc:	1013883a 	mov	r9,r2
   44dd0:	1811883a 	mov	r8,r3
   44dd4:	480d883a 	mov	r6,r9
   44dd8:	400f883a 	mov	r7,r8
   44ddc:	8809883a 	mov	r4,r17
   44de0:	a00b883a 	mov	r5,r20
   44de4:	0053f400 	call	53f40 <__divdf3>
   44de8:	d8800f15 	stw	r2,60(sp)
   44dec:	d8c01015 	stw	r3,64(sp)
   44df0:	d8c00e17 	ldw	r3,56(sp)
   44df4:	18000626 	beq	r3,zero,44e10 <_dtoa_r+0x47c>
   44df8:	d9000f17 	ldw	r4,60(sp)
   44dfc:	d9401017 	ldw	r5,64(sp)
   44e00:	000d883a 	mov	r6,zero
   44e04:	01cffc34 	movhi	r7,16368
   44e08:	005498c0 	call	5498c <__ledf2>
   44e0c:	10040b16 	blt	r2,zero,45e3c <_dtoa_r+0x14a8>
   44e10:	8009883a 	mov	r4,r16
   44e14:	0055b140 	call	55b14 <__floatsidf>
   44e18:	d9800f17 	ldw	r6,60(sp)
   44e1c:	d9c01017 	ldw	r7,64(sp)
   44e20:	1009883a 	mov	r4,r2
   44e24:	180b883a 	mov	r5,r3
   44e28:	0054a800 	call	54a80 <__muldf3>
   44e2c:	000d883a 	mov	r6,zero
   44e30:	01d00734 	movhi	r7,16412
   44e34:	1009883a 	mov	r4,r2
   44e38:	180b883a 	mov	r5,r3
   44e3c:	00536940 	call	53694 <__adddf3>
   44e40:	1021883a 	mov	r16,r2
   44e44:	d8800617 	ldw	r2,24(sp)
   44e48:	047f3034 	movhi	r17,64704
   44e4c:	1c63883a 	add	r17,r3,r17
   44e50:	10031826 	beq	r2,zero,45ab4 <_dtoa_r+0x1120>
   44e54:	d8c00517 	ldw	r3,20(sp)
   44e58:	db000617 	ldw	r12,24(sp)
   44e5c:	d8c01315 	stw	r3,76(sp)
   44e60:	d9000b17 	ldw	r4,44(sp)
   44e64:	20038f26 	beq	r4,zero,45ca4 <_dtoa_r+0x1310>
   44e68:	60bfffc4 	addi	r2,r12,-1
   44e6c:	100490fa 	slli	r2,r2,3
   44e70:	00c00174 	movhi	r3,5
   44e74:	18dca804 	addi	r3,r3,29344
   44e78:	1885883a 	add	r2,r3,r2
   44e7c:	11800017 	ldw	r6,0(r2)
   44e80:	11c00117 	ldw	r7,4(r2)
   44e84:	d8800717 	ldw	r2,28(sp)
   44e88:	0009883a 	mov	r4,zero
   44e8c:	014ff834 	movhi	r5,16352
   44e90:	db001615 	stw	r12,88(sp)
   44e94:	15c00044 	addi	r23,r2,1
   44e98:	0053f400 	call	53f40 <__divdf3>
   44e9c:	800d883a 	mov	r6,r16
   44ea0:	880f883a 	mov	r7,r17
   44ea4:	1009883a 	mov	r4,r2
   44ea8:	180b883a 	mov	r5,r3
   44eac:	00551980 	call	55198 <__subdf3>
   44eb0:	d9401017 	ldw	r5,64(sp)
   44eb4:	d9000f17 	ldw	r4,60(sp)
   44eb8:	102b883a 	mov	r21,r2
   44ebc:	d8c01215 	stw	r3,72(sp)
   44ec0:	0055a940 	call	55a94 <__fixdfsi>
   44ec4:	1009883a 	mov	r4,r2
   44ec8:	1029883a 	mov	r20,r2
   44ecc:	0055b140 	call	55b14 <__floatsidf>
   44ed0:	d9000f17 	ldw	r4,60(sp)
   44ed4:	d9401017 	ldw	r5,64(sp)
   44ed8:	100d883a 	mov	r6,r2
   44edc:	180f883a 	mov	r7,r3
   44ee0:	00551980 	call	55198 <__subdf3>
   44ee4:	1823883a 	mov	r17,r3
   44ee8:	d8c00717 	ldw	r3,28(sp)
   44eec:	d9401217 	ldw	r5,72(sp)
   44ef0:	a2000c04 	addi	r8,r20,48
   44ef4:	1021883a 	mov	r16,r2
   44ef8:	1a000005 	stb	r8,0(r3)
   44efc:	800d883a 	mov	r6,r16
   44f00:	880f883a 	mov	r7,r17
   44f04:	a809883a 	mov	r4,r21
   44f08:	4029883a 	mov	r20,r8
   44f0c:	00548b00 	call	548b0 <__gedf2>
   44f10:	00841d16 	blt	zero,r2,45f88 <_dtoa_r+0x15f4>
   44f14:	800d883a 	mov	r6,r16
   44f18:	880f883a 	mov	r7,r17
   44f1c:	0009883a 	mov	r4,zero
   44f20:	014ffc34 	movhi	r5,16368
   44f24:	00551980 	call	55198 <__subdf3>
   44f28:	d9401217 	ldw	r5,72(sp)
   44f2c:	100d883a 	mov	r6,r2
   44f30:	180f883a 	mov	r7,r3
   44f34:	a809883a 	mov	r4,r21
   44f38:	00548b00 	call	548b0 <__gedf2>
   44f3c:	db001617 	ldw	r12,88(sp)
   44f40:	00840e16 	blt	zero,r2,45f7c <_dtoa_r+0x15e8>
   44f44:	00800044 	movi	r2,1
   44f48:	13006b0e 	bge	r2,r12,450f8 <_dtoa_r+0x764>
   44f4c:	d9000717 	ldw	r4,28(sp)
   44f50:	dd800f15 	stw	r22,60(sp)
   44f54:	dcc01015 	stw	r19,64(sp)
   44f58:	2319883a 	add	r12,r4,r12
   44f5c:	dcc01217 	ldw	r19,72(sp)
   44f60:	602d883a 	mov	r22,r12
   44f64:	dc801215 	stw	r18,72(sp)
   44f68:	b825883a 	mov	r18,r23
   44f6c:	00000906 	br	44f94 <_dtoa_r+0x600>
   44f70:	00551980 	call	55198 <__subdf3>
   44f74:	a80d883a 	mov	r6,r21
   44f78:	980f883a 	mov	r7,r19
   44f7c:	1009883a 	mov	r4,r2
   44f80:	180b883a 	mov	r5,r3
   44f84:	005498c0 	call	5498c <__ledf2>
   44f88:	1003e816 	blt	r2,zero,45f2c <_dtoa_r+0x1598>
   44f8c:	b825883a 	mov	r18,r23
   44f90:	bd83e926 	beq	r23,r22,45f38 <_dtoa_r+0x15a4>
   44f94:	a809883a 	mov	r4,r21
   44f98:	980b883a 	mov	r5,r19
   44f9c:	000d883a 	mov	r6,zero
   44fa0:	01d00934 	movhi	r7,16420
   44fa4:	0054a800 	call	54a80 <__muldf3>
   44fa8:	000d883a 	mov	r6,zero
   44fac:	01d00934 	movhi	r7,16420
   44fb0:	8009883a 	mov	r4,r16
   44fb4:	880b883a 	mov	r5,r17
   44fb8:	102b883a 	mov	r21,r2
   44fbc:	1827883a 	mov	r19,r3
   44fc0:	0054a800 	call	54a80 <__muldf3>
   44fc4:	180b883a 	mov	r5,r3
   44fc8:	1009883a 	mov	r4,r2
   44fcc:	1821883a 	mov	r16,r3
   44fd0:	1023883a 	mov	r17,r2
   44fd4:	0055a940 	call	55a94 <__fixdfsi>
   44fd8:	1009883a 	mov	r4,r2
   44fdc:	1029883a 	mov	r20,r2
   44fe0:	0055b140 	call	55b14 <__floatsidf>
   44fe4:	8809883a 	mov	r4,r17
   44fe8:	800b883a 	mov	r5,r16
   44fec:	100d883a 	mov	r6,r2
   44ff0:	180f883a 	mov	r7,r3
   44ff4:	00551980 	call	55198 <__subdf3>
   44ff8:	a5000c04 	addi	r20,r20,48
   44ffc:	a80d883a 	mov	r6,r21
   45000:	980f883a 	mov	r7,r19
   45004:	1009883a 	mov	r4,r2
   45008:	180b883a 	mov	r5,r3
   4500c:	95000005 	stb	r20,0(r18)
   45010:	1021883a 	mov	r16,r2
   45014:	1823883a 	mov	r17,r3
   45018:	005498c0 	call	5498c <__ledf2>
   4501c:	bdc00044 	addi	r23,r23,1
   45020:	800d883a 	mov	r6,r16
   45024:	880f883a 	mov	r7,r17
   45028:	0009883a 	mov	r4,zero
   4502c:	014ffc34 	movhi	r5,16368
   45030:	103fcf0e 	bge	r2,zero,44f70 <__alt_data_end+0xfffd2f70>
   45034:	d8c01317 	ldw	r3,76(sp)
   45038:	d8c00515 	stw	r3,20(sp)
   4503c:	d9400917 	ldw	r5,36(sp)
   45040:	e009883a 	mov	r4,fp
   45044:	00484440 	call	48444 <_Bfree>
   45048:	d9000517 	ldw	r4,20(sp)
   4504c:	d9802317 	ldw	r6,140(sp)
   45050:	d9c02517 	ldw	r7,148(sp)
   45054:	b8000005 	stb	zero,0(r23)
   45058:	20800044 	addi	r2,r4,1
   4505c:	30800015 	stw	r2,0(r6)
   45060:	3802aa26 	beq	r7,zero,45b0c <_dtoa_r+0x1178>
   45064:	3dc00015 	stw	r23,0(r7)
   45068:	d8800717 	ldw	r2,28(sp)
   4506c:	003e7906 	br	44a54 <__alt_data_end+0xfffd2a54>
   45070:	00800434 	movhi	r2,16
   45074:	10bfffc4 	addi	r2,r2,-1
   45078:	88a2703a 	and	r17,r17,r2
   4507c:	883e851e 	bne	r17,zero,44a94 <__alt_data_end+0xfffd2a94>
   45080:	00800174 	movhi	r2,5
   45084:	109c8904 	addi	r2,r2,29220
   45088:	003e8406 	br	44a9c <__alt_data_end+0xfffd2a9c>
   4508c:	10c00204 	addi	r3,r2,8
   45090:	003e8706 	br	44ab0 <__alt_data_end+0xfffd2ab0>
   45094:	01400434 	movhi	r5,16
   45098:	297fffc4 	addi	r5,r5,-1
   4509c:	994a703a 	and	r5,r19,r5
   450a0:	9009883a 	mov	r4,r18
   450a4:	843f0044 	addi	r16,r16,-1023
   450a8:	294ffc34 	orhi	r5,r5,16368
   450ac:	dd800217 	ldw	r22,8(sp)
   450b0:	d8001115 	stw	zero,68(sp)
   450b4:	003ea506 	br	44b4c <__alt_data_end+0xfffd2b4c>
   450b8:	00800174 	movhi	r2,5
   450bc:	109bd504 	addi	r2,r2,28500
   450c0:	003e6406 	br	44a54 <__alt_data_end+0xfffd2a54>
   450c4:	e0001115 	stw	zero,68(fp)
   450c8:	000b883a 	mov	r5,zero
   450cc:	e009883a 	mov	r4,fp
   450d0:	004839c0 	call	4839c <_Balloc>
   450d4:	01bfffc4 	movi	r6,-1
   450d8:	01c00044 	movi	r7,1
   450dc:	d8800715 	stw	r2,28(sp)
   450e0:	d9800c15 	stw	r6,48(sp)
   450e4:	e0801015 	stw	r2,64(fp)
   450e8:	d8000315 	stw	zero,12(sp)
   450ec:	d9c00b15 	stw	r7,44(sp)
   450f0:	d9800615 	stw	r6,24(sp)
   450f4:	d8002215 	stw	zero,136(sp)
   450f8:	d8800117 	ldw	r2,4(sp)
   450fc:	10008916 	blt	r2,zero,45324 <_dtoa_r+0x990>
   45100:	d9000517 	ldw	r4,20(sp)
   45104:	00c00384 	movi	r3,14
   45108:	19008616 	blt	r3,r4,45324 <_dtoa_r+0x990>
   4510c:	200490fa 	slli	r2,r4,3
   45110:	00c00174 	movhi	r3,5
   45114:	d9802217 	ldw	r6,136(sp)
   45118:	18dca804 	addi	r3,r3,29344
   4511c:	1885883a 	add	r2,r3,r2
   45120:	14000017 	ldw	r16,0(r2)
   45124:	14400117 	ldw	r17,4(r2)
   45128:	30016316 	blt	r6,zero,456b8 <_dtoa_r+0xd24>
   4512c:	800d883a 	mov	r6,r16
   45130:	880f883a 	mov	r7,r17
   45134:	9009883a 	mov	r4,r18
   45138:	980b883a 	mov	r5,r19
   4513c:	0053f400 	call	53f40 <__divdf3>
   45140:	180b883a 	mov	r5,r3
   45144:	1009883a 	mov	r4,r2
   45148:	0055a940 	call	55a94 <__fixdfsi>
   4514c:	1009883a 	mov	r4,r2
   45150:	102b883a 	mov	r21,r2
   45154:	0055b140 	call	55b14 <__floatsidf>
   45158:	800d883a 	mov	r6,r16
   4515c:	880f883a 	mov	r7,r17
   45160:	1009883a 	mov	r4,r2
   45164:	180b883a 	mov	r5,r3
   45168:	0054a800 	call	54a80 <__muldf3>
   4516c:	100d883a 	mov	r6,r2
   45170:	180f883a 	mov	r7,r3
   45174:	9009883a 	mov	r4,r18
   45178:	980b883a 	mov	r5,r19
   4517c:	00551980 	call	55198 <__subdf3>
   45180:	d9c00717 	ldw	r7,28(sp)
   45184:	1009883a 	mov	r4,r2
   45188:	a8800c04 	addi	r2,r21,48
   4518c:	38800005 	stb	r2,0(r7)
   45190:	3dc00044 	addi	r23,r7,1
   45194:	d9c00617 	ldw	r7,24(sp)
   45198:	01800044 	movi	r6,1
   4519c:	180b883a 	mov	r5,r3
   451a0:	2005883a 	mov	r2,r4
   451a4:	39803826 	beq	r7,r6,45288 <_dtoa_r+0x8f4>
   451a8:	000d883a 	mov	r6,zero
   451ac:	01d00934 	movhi	r7,16420
   451b0:	0054a800 	call	54a80 <__muldf3>
   451b4:	000d883a 	mov	r6,zero
   451b8:	000f883a 	mov	r7,zero
   451bc:	1009883a 	mov	r4,r2
   451c0:	180b883a 	mov	r5,r3
   451c4:	1025883a 	mov	r18,r2
   451c8:	1827883a 	mov	r19,r3
   451cc:	00548280 	call	54828 <__eqdf2>
   451d0:	103f9a26 	beq	r2,zero,4503c <__alt_data_end+0xfffd303c>
   451d4:	d9c00617 	ldw	r7,24(sp)
   451d8:	d8c00717 	ldw	r3,28(sp)
   451dc:	b829883a 	mov	r20,r23
   451e0:	38bfffc4 	addi	r2,r7,-1
   451e4:	18ad883a 	add	r22,r3,r2
   451e8:	00000a06 	br	45214 <_dtoa_r+0x880>
   451ec:	0054a800 	call	54a80 <__muldf3>
   451f0:	000d883a 	mov	r6,zero
   451f4:	000f883a 	mov	r7,zero
   451f8:	1009883a 	mov	r4,r2
   451fc:	180b883a 	mov	r5,r3
   45200:	1025883a 	mov	r18,r2
   45204:	1827883a 	mov	r19,r3
   45208:	b829883a 	mov	r20,r23
   4520c:	00548280 	call	54828 <__eqdf2>
   45210:	103f8a26 	beq	r2,zero,4503c <__alt_data_end+0xfffd303c>
   45214:	800d883a 	mov	r6,r16
   45218:	880f883a 	mov	r7,r17
   4521c:	9009883a 	mov	r4,r18
   45220:	980b883a 	mov	r5,r19
   45224:	0053f400 	call	53f40 <__divdf3>
   45228:	180b883a 	mov	r5,r3
   4522c:	1009883a 	mov	r4,r2
   45230:	0055a940 	call	55a94 <__fixdfsi>
   45234:	1009883a 	mov	r4,r2
   45238:	102b883a 	mov	r21,r2
   4523c:	0055b140 	call	55b14 <__floatsidf>
   45240:	800d883a 	mov	r6,r16
   45244:	880f883a 	mov	r7,r17
   45248:	1009883a 	mov	r4,r2
   4524c:	180b883a 	mov	r5,r3
   45250:	0054a800 	call	54a80 <__muldf3>
   45254:	100d883a 	mov	r6,r2
   45258:	180f883a 	mov	r7,r3
   4525c:	9009883a 	mov	r4,r18
   45260:	980b883a 	mov	r5,r19
   45264:	00551980 	call	55198 <__subdf3>
   45268:	aa000c04 	addi	r8,r21,48
   4526c:	a2000005 	stb	r8,0(r20)
   45270:	000d883a 	mov	r6,zero
   45274:	01d00934 	movhi	r7,16420
   45278:	1009883a 	mov	r4,r2
   4527c:	180b883a 	mov	r5,r3
   45280:	a5c00044 	addi	r23,r20,1
   45284:	b53fd91e 	bne	r22,r20,451ec <__alt_data_end+0xfffd31ec>
   45288:	100d883a 	mov	r6,r2
   4528c:	180f883a 	mov	r7,r3
   45290:	1009883a 	mov	r4,r2
   45294:	180b883a 	mov	r5,r3
   45298:	00536940 	call	53694 <__adddf3>
   4529c:	100d883a 	mov	r6,r2
   452a0:	180f883a 	mov	r7,r3
   452a4:	8009883a 	mov	r4,r16
   452a8:	880b883a 	mov	r5,r17
   452ac:	1027883a 	mov	r19,r2
   452b0:	1825883a 	mov	r18,r3
   452b4:	005498c0 	call	5498c <__ledf2>
   452b8:	10000816 	blt	r2,zero,452dc <_dtoa_r+0x948>
   452bc:	980d883a 	mov	r6,r19
   452c0:	900f883a 	mov	r7,r18
   452c4:	8009883a 	mov	r4,r16
   452c8:	880b883a 	mov	r5,r17
   452cc:	00548280 	call	54828 <__eqdf2>
   452d0:	103f5a1e 	bne	r2,zero,4503c <__alt_data_end+0xfffd303c>
   452d4:	ad40004c 	andi	r21,r21,1
   452d8:	a83f5826 	beq	r21,zero,4503c <__alt_data_end+0xfffd303c>
   452dc:	bd3fffc3 	ldbu	r20,-1(r23)
   452e0:	b8bfffc4 	addi	r2,r23,-1
   452e4:	1007883a 	mov	r3,r2
   452e8:	01400e44 	movi	r5,57
   452ec:	d9800717 	ldw	r6,28(sp)
   452f0:	00000506 	br	45308 <_dtoa_r+0x974>
   452f4:	18ffffc4 	addi	r3,r3,-1
   452f8:	11824726 	beq	r2,r6,45c18 <_dtoa_r+0x1284>
   452fc:	1d000003 	ldbu	r20,0(r3)
   45300:	102f883a 	mov	r23,r2
   45304:	10bfffc4 	addi	r2,r2,-1
   45308:	a1003fcc 	andi	r4,r20,255
   4530c:	2100201c 	xori	r4,r4,128
   45310:	213fe004 	addi	r4,r4,-128
   45314:	217ff726 	beq	r4,r5,452f4 <__alt_data_end+0xfffd32f4>
   45318:	a2000044 	addi	r8,r20,1
   4531c:	12000005 	stb	r8,0(r2)
   45320:	003f4606 	br	4503c <__alt_data_end+0xfffd303c>
   45324:	d9000b17 	ldw	r4,44(sp)
   45328:	2000c826 	beq	r4,zero,4564c <_dtoa_r+0xcb8>
   4532c:	d9800317 	ldw	r6,12(sp)
   45330:	00c00044 	movi	r3,1
   45334:	1980f90e 	bge	r3,r6,4571c <_dtoa_r+0xd88>
   45338:	d8800617 	ldw	r2,24(sp)
   4533c:	d8c00a17 	ldw	r3,40(sp)
   45340:	157fffc4 	addi	r21,r2,-1
   45344:	1d41f316 	blt	r3,r21,45b14 <_dtoa_r+0x1180>
   45348:	1d6bc83a 	sub	r21,r3,r21
   4534c:	d9c00617 	ldw	r7,24(sp)
   45350:	3802aa16 	blt	r7,zero,45dfc <_dtoa_r+0x1468>
   45354:	dd000817 	ldw	r20,32(sp)
   45358:	d8800617 	ldw	r2,24(sp)
   4535c:	d8c00817 	ldw	r3,32(sp)
   45360:	01400044 	movi	r5,1
   45364:	e009883a 	mov	r4,fp
   45368:	1887883a 	add	r3,r3,r2
   4536c:	d8c00815 	stw	r3,32(sp)
   45370:	b0ad883a 	add	r22,r22,r2
   45374:	00487a80 	call	487a8 <__i2b>
   45378:	1023883a 	mov	r17,r2
   4537c:	a0000826 	beq	r20,zero,453a0 <_dtoa_r+0xa0c>
   45380:	0580070e 	bge	zero,r22,453a0 <_dtoa_r+0xa0c>
   45384:	a005883a 	mov	r2,r20
   45388:	b500b916 	blt	r22,r20,45670 <_dtoa_r+0xcdc>
   4538c:	d9000817 	ldw	r4,32(sp)
   45390:	a0a9c83a 	sub	r20,r20,r2
   45394:	b0adc83a 	sub	r22,r22,r2
   45398:	2089c83a 	sub	r4,r4,r2
   4539c:	d9000815 	stw	r4,32(sp)
   453a0:	d9800a17 	ldw	r6,40(sp)
   453a4:	0181810e 	bge	zero,r6,459ac <_dtoa_r+0x1018>
   453a8:	d9c00b17 	ldw	r7,44(sp)
   453ac:	3800b326 	beq	r7,zero,4567c <_dtoa_r+0xce8>
   453b0:	a800b226 	beq	r21,zero,4567c <_dtoa_r+0xce8>
   453b4:	880b883a 	mov	r5,r17
   453b8:	a80d883a 	mov	r6,r21
   453bc:	e009883a 	mov	r4,fp
   453c0:	00489dc0 	call	489dc <__pow5mult>
   453c4:	d9800917 	ldw	r6,36(sp)
   453c8:	100b883a 	mov	r5,r2
   453cc:	e009883a 	mov	r4,fp
   453d0:	1023883a 	mov	r17,r2
   453d4:	00487e40 	call	487e4 <__multiply>
   453d8:	1021883a 	mov	r16,r2
   453dc:	d8800a17 	ldw	r2,40(sp)
   453e0:	d9400917 	ldw	r5,36(sp)
   453e4:	e009883a 	mov	r4,fp
   453e8:	1545c83a 	sub	r2,r2,r21
   453ec:	d8800a15 	stw	r2,40(sp)
   453f0:	00484440 	call	48444 <_Bfree>
   453f4:	d8c00a17 	ldw	r3,40(sp)
   453f8:	18009f1e 	bne	r3,zero,45678 <_dtoa_r+0xce4>
   453fc:	05c00044 	movi	r23,1
   45400:	e009883a 	mov	r4,fp
   45404:	b80b883a 	mov	r5,r23
   45408:	00487a80 	call	487a8 <__i2b>
   4540c:	d9000d17 	ldw	r4,52(sp)
   45410:	102b883a 	mov	r21,r2
   45414:	2000ce26 	beq	r4,zero,45750 <_dtoa_r+0xdbc>
   45418:	200d883a 	mov	r6,r4
   4541c:	100b883a 	mov	r5,r2
   45420:	e009883a 	mov	r4,fp
   45424:	00489dc0 	call	489dc <__pow5mult>
   45428:	d9800317 	ldw	r6,12(sp)
   4542c:	102b883a 	mov	r21,r2
   45430:	b981810e 	bge	r23,r6,45a38 <_dtoa_r+0x10a4>
   45434:	0027883a 	mov	r19,zero
   45438:	a8800417 	ldw	r2,16(r21)
   4543c:	05c00804 	movi	r23,32
   45440:	10800104 	addi	r2,r2,4
   45444:	1085883a 	add	r2,r2,r2
   45448:	1085883a 	add	r2,r2,r2
   4544c:	a885883a 	add	r2,r21,r2
   45450:	11000017 	ldw	r4,0(r2)
   45454:	00486900 	call	48690 <__hi0bits>
   45458:	b885c83a 	sub	r2,r23,r2
   4545c:	1585883a 	add	r2,r2,r22
   45460:	108007cc 	andi	r2,r2,31
   45464:	1000b326 	beq	r2,zero,45734 <_dtoa_r+0xda0>
   45468:	00c00804 	movi	r3,32
   4546c:	1887c83a 	sub	r3,r3,r2
   45470:	01000104 	movi	r4,4
   45474:	20c2cd0e 	bge	r4,r3,45fac <_dtoa_r+0x1618>
   45478:	00c00704 	movi	r3,28
   4547c:	1885c83a 	sub	r2,r3,r2
   45480:	d8c00817 	ldw	r3,32(sp)
   45484:	a0a9883a 	add	r20,r20,r2
   45488:	b0ad883a 	add	r22,r22,r2
   4548c:	1887883a 	add	r3,r3,r2
   45490:	d8c00815 	stw	r3,32(sp)
   45494:	d9800817 	ldw	r6,32(sp)
   45498:	0180040e 	bge	zero,r6,454ac <_dtoa_r+0xb18>
   4549c:	800b883a 	mov	r5,r16
   454a0:	e009883a 	mov	r4,fp
   454a4:	0048b1c0 	call	48b1c <__lshift>
   454a8:	1021883a 	mov	r16,r2
   454ac:	0580050e 	bge	zero,r22,454c4 <_dtoa_r+0xb30>
   454b0:	a80b883a 	mov	r5,r21
   454b4:	b00d883a 	mov	r6,r22
   454b8:	e009883a 	mov	r4,fp
   454bc:	0048b1c0 	call	48b1c <__lshift>
   454c0:	102b883a 	mov	r21,r2
   454c4:	d9c00e17 	ldw	r7,56(sp)
   454c8:	3801211e 	bne	r7,zero,45950 <_dtoa_r+0xfbc>
   454cc:	d9800617 	ldw	r6,24(sp)
   454d0:	0181380e 	bge	zero,r6,459b4 <_dtoa_r+0x1020>
   454d4:	d8c00b17 	ldw	r3,44(sp)
   454d8:	1800ab1e 	bne	r3,zero,45788 <_dtoa_r+0xdf4>
   454dc:	dc800717 	ldw	r18,28(sp)
   454e0:	dcc00617 	ldw	r19,24(sp)
   454e4:	9029883a 	mov	r20,r18
   454e8:	00000206 	br	454f4 <_dtoa_r+0xb60>
   454ec:	004846c0 	call	4846c <__multadd>
   454f0:	1021883a 	mov	r16,r2
   454f4:	a80b883a 	mov	r5,r21
   454f8:	8009883a 	mov	r4,r16
   454fc:	00447940 	call	44794 <quorem>
   45500:	10800c04 	addi	r2,r2,48
   45504:	90800005 	stb	r2,0(r18)
   45508:	94800044 	addi	r18,r18,1
   4550c:	9507c83a 	sub	r3,r18,r20
   45510:	000f883a 	mov	r7,zero
   45514:	01800284 	movi	r6,10
   45518:	800b883a 	mov	r5,r16
   4551c:	e009883a 	mov	r4,fp
   45520:	1cfff216 	blt	r3,r19,454ec <__alt_data_end+0xfffd34ec>
   45524:	1011883a 	mov	r8,r2
   45528:	d8800617 	ldw	r2,24(sp)
   4552c:	0082370e 	bge	zero,r2,45e0c <_dtoa_r+0x1478>
   45530:	d9000717 	ldw	r4,28(sp)
   45534:	0025883a 	mov	r18,zero
   45538:	20af883a 	add	r23,r4,r2
   4553c:	01800044 	movi	r6,1
   45540:	800b883a 	mov	r5,r16
   45544:	e009883a 	mov	r4,fp
   45548:	da001715 	stw	r8,92(sp)
   4554c:	0048b1c0 	call	48b1c <__lshift>
   45550:	a80b883a 	mov	r5,r21
   45554:	1009883a 	mov	r4,r2
   45558:	d8800915 	stw	r2,36(sp)
   4555c:	0048c640 	call	48c64 <__mcmp>
   45560:	da001717 	ldw	r8,92(sp)
   45564:	0081800e 	bge	zero,r2,45b68 <_dtoa_r+0x11d4>
   45568:	b93fffc3 	ldbu	r4,-1(r23)
   4556c:	b8bfffc4 	addi	r2,r23,-1
   45570:	1007883a 	mov	r3,r2
   45574:	01800e44 	movi	r6,57
   45578:	d9c00717 	ldw	r7,28(sp)
   4557c:	00000506 	br	45594 <_dtoa_r+0xc00>
   45580:	18ffffc4 	addi	r3,r3,-1
   45584:	11c12326 	beq	r2,r7,45a14 <_dtoa_r+0x1080>
   45588:	19000003 	ldbu	r4,0(r3)
   4558c:	102f883a 	mov	r23,r2
   45590:	10bfffc4 	addi	r2,r2,-1
   45594:	21403fcc 	andi	r5,r4,255
   45598:	2940201c 	xori	r5,r5,128
   4559c:	297fe004 	addi	r5,r5,-128
   455a0:	29bff726 	beq	r5,r6,45580 <__alt_data_end+0xfffd3580>
   455a4:	21000044 	addi	r4,r4,1
   455a8:	11000005 	stb	r4,0(r2)
   455ac:	a80b883a 	mov	r5,r21
   455b0:	e009883a 	mov	r4,fp
   455b4:	00484440 	call	48444 <_Bfree>
   455b8:	883ea026 	beq	r17,zero,4503c <__alt_data_end+0xfffd303c>
   455bc:	90000426 	beq	r18,zero,455d0 <_dtoa_r+0xc3c>
   455c0:	94400326 	beq	r18,r17,455d0 <_dtoa_r+0xc3c>
   455c4:	900b883a 	mov	r5,r18
   455c8:	e009883a 	mov	r4,fp
   455cc:	00484440 	call	48444 <_Bfree>
   455d0:	880b883a 	mov	r5,r17
   455d4:	e009883a 	mov	r4,fp
   455d8:	00484440 	call	48444 <_Bfree>
   455dc:	003e9706 	br	4503c <__alt_data_end+0xfffd303c>
   455e0:	01800044 	movi	r6,1
   455e4:	d9800e15 	stw	r6,56(sp)
   455e8:	003d9606 	br	44c44 <__alt_data_end+0xfffd2c44>
   455ec:	d8800817 	ldw	r2,32(sp)
   455f0:	d8c00517 	ldw	r3,20(sp)
   455f4:	d8000d15 	stw	zero,52(sp)
   455f8:	10c5c83a 	sub	r2,r2,r3
   455fc:	00c9c83a 	sub	r4,zero,r3
   45600:	d8800815 	stw	r2,32(sp)
   45604:	d9000a15 	stw	r4,40(sp)
   45608:	003d9706 	br	44c68 <__alt_data_end+0xfffd2c68>
   4560c:	05adc83a 	sub	r22,zero,r22
   45610:	dd800815 	stw	r22,32(sp)
   45614:	002d883a 	mov	r22,zero
   45618:	003d8e06 	br	44c54 <__alt_data_end+0xfffd2c54>
   4561c:	d9000517 	ldw	r4,20(sp)
   45620:	0055b140 	call	55b14 <__floatsidf>
   45624:	100d883a 	mov	r6,r2
   45628:	180f883a 	mov	r7,r3
   4562c:	a009883a 	mov	r4,r20
   45630:	880b883a 	mov	r5,r17
   45634:	00548280 	call	54828 <__eqdf2>
   45638:	103d7126 	beq	r2,zero,44c00 <__alt_data_end+0xfffd2c00>
   4563c:	d9c00517 	ldw	r7,20(sp)
   45640:	39ffffc4 	addi	r7,r7,-1
   45644:	d9c00515 	stw	r7,20(sp)
   45648:	003d6d06 	br	44c00 <__alt_data_end+0xfffd2c00>
   4564c:	dd400a17 	ldw	r21,40(sp)
   45650:	dd000817 	ldw	r20,32(sp)
   45654:	0023883a 	mov	r17,zero
   45658:	003f4806 	br	4537c <__alt_data_end+0xfffd337c>
   4565c:	10e3c83a 	sub	r17,r2,r3
   45660:	9448983a 	sll	r4,r18,r17
   45664:	003d3206 	br	44b30 <__alt_data_end+0xfffd2b30>
   45668:	d8000e15 	stw	zero,56(sp)
   4566c:	003d7506 	br	44c44 <__alt_data_end+0xfffd2c44>
   45670:	b005883a 	mov	r2,r22
   45674:	003f4506 	br	4538c <__alt_data_end+0xfffd338c>
   45678:	dc000915 	stw	r16,36(sp)
   4567c:	d9800a17 	ldw	r6,40(sp)
   45680:	d9400917 	ldw	r5,36(sp)
   45684:	e009883a 	mov	r4,fp
   45688:	00489dc0 	call	489dc <__pow5mult>
   4568c:	1021883a 	mov	r16,r2
   45690:	003f5a06 	br	453fc <__alt_data_end+0xfffd33fc>
   45694:	01c00044 	movi	r7,1
   45698:	d9c00b15 	stw	r7,44(sp)
   4569c:	d8802217 	ldw	r2,136(sp)
   456a0:	0081280e 	bge	zero,r2,45b44 <_dtoa_r+0x11b0>
   456a4:	100d883a 	mov	r6,r2
   456a8:	1021883a 	mov	r16,r2
   456ac:	d8800c15 	stw	r2,48(sp)
   456b0:	d8800615 	stw	r2,24(sp)
   456b4:	003d8806 	br	44cd8 <__alt_data_end+0xfffd2cd8>
   456b8:	d8800617 	ldw	r2,24(sp)
   456bc:	00be9b16 	blt	zero,r2,4512c <__alt_data_end+0xfffd312c>
   456c0:	10010f1e 	bne	r2,zero,45b00 <_dtoa_r+0x116c>
   456c4:	880b883a 	mov	r5,r17
   456c8:	000d883a 	mov	r6,zero
   456cc:	01d00534 	movhi	r7,16404
   456d0:	8009883a 	mov	r4,r16
   456d4:	0054a800 	call	54a80 <__muldf3>
   456d8:	900d883a 	mov	r6,r18
   456dc:	980f883a 	mov	r7,r19
   456e0:	1009883a 	mov	r4,r2
   456e4:	180b883a 	mov	r5,r3
   456e8:	00548b00 	call	548b0 <__gedf2>
   456ec:	002b883a 	mov	r21,zero
   456f0:	0023883a 	mov	r17,zero
   456f4:	1000bf16 	blt	r2,zero,459f4 <_dtoa_r+0x1060>
   456f8:	d9802217 	ldw	r6,136(sp)
   456fc:	ddc00717 	ldw	r23,28(sp)
   45700:	018c303a 	nor	r6,zero,r6
   45704:	d9800515 	stw	r6,20(sp)
   45708:	a80b883a 	mov	r5,r21
   4570c:	e009883a 	mov	r4,fp
   45710:	00484440 	call	48444 <_Bfree>
   45714:	883e4926 	beq	r17,zero,4503c <__alt_data_end+0xfffd303c>
   45718:	003fad06 	br	455d0 <__alt_data_end+0xfffd35d0>
   4571c:	d9c01117 	ldw	r7,68(sp)
   45720:	3801bc26 	beq	r7,zero,45e14 <_dtoa_r+0x1480>
   45724:	10810cc4 	addi	r2,r2,1075
   45728:	dd400a17 	ldw	r21,40(sp)
   4572c:	dd000817 	ldw	r20,32(sp)
   45730:	003f0a06 	br	4535c <__alt_data_end+0xfffd335c>
   45734:	00800704 	movi	r2,28
   45738:	d9000817 	ldw	r4,32(sp)
   4573c:	a0a9883a 	add	r20,r20,r2
   45740:	b0ad883a 	add	r22,r22,r2
   45744:	2089883a 	add	r4,r4,r2
   45748:	d9000815 	stw	r4,32(sp)
   4574c:	003f5106 	br	45494 <__alt_data_end+0xfffd3494>
   45750:	d8c00317 	ldw	r3,12(sp)
   45754:	b8c1fc0e 	bge	r23,r3,45f48 <_dtoa_r+0x15b4>
   45758:	0027883a 	mov	r19,zero
   4575c:	b805883a 	mov	r2,r23
   45760:	003f3e06 	br	4545c <__alt_data_end+0xfffd345c>
   45764:	880b883a 	mov	r5,r17
   45768:	e009883a 	mov	r4,fp
   4576c:	000f883a 	mov	r7,zero
   45770:	01800284 	movi	r6,10
   45774:	004846c0 	call	4846c <__multadd>
   45778:	d9000c17 	ldw	r4,48(sp)
   4577c:	1023883a 	mov	r17,r2
   45780:	0102040e 	bge	zero,r4,45f94 <_dtoa_r+0x1600>
   45784:	d9000615 	stw	r4,24(sp)
   45788:	0500050e 	bge	zero,r20,457a0 <_dtoa_r+0xe0c>
   4578c:	880b883a 	mov	r5,r17
   45790:	a00d883a 	mov	r6,r20
   45794:	e009883a 	mov	r4,fp
   45798:	0048b1c0 	call	48b1c <__lshift>
   4579c:	1023883a 	mov	r17,r2
   457a0:	9801241e 	bne	r19,zero,45c34 <_dtoa_r+0x12a0>
   457a4:	8829883a 	mov	r20,r17
   457a8:	d9000617 	ldw	r4,24(sp)
   457ac:	dcc00717 	ldw	r19,28(sp)
   457b0:	9480004c 	andi	r18,r18,1
   457b4:	20bfffc4 	addi	r2,r4,-1
   457b8:	9885883a 	add	r2,r19,r2
   457bc:	d8800415 	stw	r2,16(sp)
   457c0:	dc800615 	stw	r18,24(sp)
   457c4:	a80b883a 	mov	r5,r21
   457c8:	8009883a 	mov	r4,r16
   457cc:	00447940 	call	44794 <quorem>
   457d0:	880b883a 	mov	r5,r17
   457d4:	8009883a 	mov	r4,r16
   457d8:	102f883a 	mov	r23,r2
   457dc:	0048c640 	call	48c64 <__mcmp>
   457e0:	a80b883a 	mov	r5,r21
   457e4:	a00d883a 	mov	r6,r20
   457e8:	e009883a 	mov	r4,fp
   457ec:	102d883a 	mov	r22,r2
   457f0:	0048cc40 	call	48cc4 <__mdiff>
   457f4:	1007883a 	mov	r3,r2
   457f8:	10800317 	ldw	r2,12(r2)
   457fc:	bc800c04 	addi	r18,r23,48
   45800:	180b883a 	mov	r5,r3
   45804:	10004e1e 	bne	r2,zero,45940 <_dtoa_r+0xfac>
   45808:	8009883a 	mov	r4,r16
   4580c:	d8c01615 	stw	r3,88(sp)
   45810:	0048c640 	call	48c64 <__mcmp>
   45814:	d8c01617 	ldw	r3,88(sp)
   45818:	e009883a 	mov	r4,fp
   4581c:	d8801615 	stw	r2,88(sp)
   45820:	180b883a 	mov	r5,r3
   45824:	00484440 	call	48444 <_Bfree>
   45828:	d8801617 	ldw	r2,88(sp)
   4582c:	1000041e 	bne	r2,zero,45840 <_dtoa_r+0xeac>
   45830:	d9800317 	ldw	r6,12(sp)
